(dp0
I5
((lp1
F0.007612943649291992
aF0.0015320777893066406
aF0.0014438629150390625
aF0.004055023193359375
aF0.0013549327850341797
a(lp2
cnumpy.core.multiarray
scalar
p3
(cnumpy
dtype
p4
(S'f8'
p5
I0
I1
tp6
Rp7
(I3
S'<'
p8
NNNI-1
I-1
I0
tp9
bS'\x83\x9a\xa5\x87A\x18\xeb\xbf'
p10
tp11
Rp12
ag3
(g7
S'\xea\xb2\x1du\xf7\xec\xf7?'
p13
tp14
Rp15
ag3
(g7
S'\xf3/$\x0c$\xc3\xe0\xbf'
p16
tp17
Rp18
ag3
(g7
S'6\x873\r\xd1\x0e\xe9\xbf'
p19
tp20
Rp21
ag3
(g7
S'\xa8\t[ 8X\x02@'
p22
tp23
Rp24
aN(lp25
g3
(g7
S'\xe9\x01\xee\x9f\xad\x17\r@'
p26
tp27
Rp28
ag3
(g7
S'\x06\x99\x91\xa4\xda\xe0\x0b@'
p29
tp30
Rp31
ag3
(g7
S'\x06\x99\x91\xa4\xda\xe0\x0b@'
p32
tp33
Rp34
ag3
(g7
S'\x1b\xeb\xf9_\x16S\x08@'
p35
tp36
Rp37
ag3
(g7
S'.\x13,w\x189\x07@'
p38
tp39
Rp40
atp41
sI6
((lp42
F0.017236948013305664
aF0.011422157287597656
aF0.0030961036682128906
aF0.0020151138305664062
aF0.008342981338500977
a(lp43
g3
(g7
S'%/\x05d\x9f^\xe8?'
p44
tp45
Rp46
ag3
(g7
S'h\x03]\xfb\x8b\x01\xf2?'
p47
tp48
Rp49
ag3
(g7
S'\x06\xe4\x14A#\xe9\xff?'
p50
tp51
Rp52
ag3
(g7
S'\xecC\xa2\x9aM\x0b\x00@'
p53
tp54
Rp55
ag3
(g7
S'\xe8.m\xe3j\xde\xf1?'
p56
tp57
Rp58
aN(lp59
g3
(g7
S'\xeaHRL\t\x04B@'
p60
tp61
Rp62
ag3
(g7
S'\xef\xeb\x19\x8cDI?@'
p63
tp64
Rp65
ag3
(g7
S'\xc2w1s\xf0\x8c>@'
p66
tp67
Rp68
ag3
(g7
S'I\xb4|\xc5(1>@'
p69
tp70
Rp71
ag3
(g7
S'\xf63\xd6\xb4\xcb1;@'
p72
tp73
Rp74
atp75
sI7
((lp76
F0.007237911224365234
aF0.004857063293457031
aF0.010305166244506836
aF0.002357959747314453
aF0.0025680065155029297
a(lp77
g3
(g7
S'V\xa8\x97\x90f\xc9\x0c@'
p78
tp79
Rp80
ag3
(g7
S'J\xbc\xbd\xccO\xc9\x0e@'
p81
tp82
Rp83
ag3
(g7
S'\x00\xd9\x97Y\x163\x05@'
p84
tp85
Rp86
ag3
(g7
S'+\xf1\x13b\xe7f\x1b@'
p87
tp88
Rp89
ag3
(g7
S'\x959\x11a\x85[\x11@'
p90
tp91
Rp92
aN(lp93
g3
(g7
S'\x18\x85\x9c\x9c\x1e@b@'
p94
tp95
Rp96
ag3
(g7
S'\xb3\xdavF\x94\x06a@'
p97
tp98
Rp99
ag3
(g7
S'\xd5\xa6#Z#._@'
p100
tp101
Rp102
ag3
(g7
S'\x1f\x92{\r\xca\x05_@'
p103
tp104
Rp105
ag3
(g7
S'z>\xebv\xf2\x9c^@'
p106
tp107
Rp108
atp109
sI8
((lp110
F0.003381013870239258
aF0.014245033264160156
aF0.010541915893554688
aF0.0031080245971679688
aF0.007288932800292969
a(lp111
g3
(g7
S'\xcc\xb9\x1e\x96\xd3\x12 @'
p112
tp113
Rp114
ag3
(g7
S'\x86\x82\xd0\xee\x03\xe7\x11@'
p115
tp116
Rp117
ag3
(g7
S'GN\x15\xd9\x98\x16\x13@'
p118
tp119
Rp120
ag3
(g7
S'I\x1b\xf3\x1d \xca\x1d@'
p121
tp122
Rp123
ag3
(g7
S'0\xa57\xdd\x97\x18\x15@'
p124
tp125
Rp126
aN(lp127
g3
(g7
S'\x05:\x9a\xcb\xbb\x97\x8f@'
p128
tp129
Rp130
ag3
(g7
S'-\x19 \xeb\xac\xd0\x8c@'
p131
tp132
Rp133
ag3
(g7
S'\xad\x8fsuoJ\x8c@'
p134
tp135
Rp136
ag3
(g7
S'\xc4\xbf\x17\xd1\xa2/\x8c@'
p137
tp138
Rp139
ag3
(g7
S'j\xe2\xbf\x8d)\x9e\x8b@'
p140
tp141
Rp142
atp143
sI9
((lp144
F0.031391143798828125
aF0.01582789421081543
aF0.003593921661376953
aF0.0035851001739501953
aF0.03263211250305176
a(lp145
g3
(g7
S'r\xd3\xd1\x0fb\x8f\x15@'
p146
tp147
Rp148
ag3
(g7
S'\xf9\x84\xa9\xc7\x9f\xd6\x15@'
p149
tp150
Rp151
ag3
(g7
S'88\xa6q\xfc("@'
p152
tp153
Rp154
ag3
(g7
S'Ub\x8e\x99d\x17#@'
p155
tp156
Rp157
ag3
(g7
S'\x95\xa08\xe8\x80\x80\x13@'
p158
tp159
Rp160
aN(lp161
g3
(g7
S'\xefC\xf4/T\xbc\xa9@'
p162
tp163
Rp164
ag3
(g7
S'EX\xcf\xca\xe1\xa2\xa8@'
p165
tp166
Rp167
ag3
(g7
S'\x9f\xef\xc1\x92\x83U\xa8@'
p168
tp169
Rp170
ag3
(g7
S'|I;\x9d\xdaF\xa8@'
p171
tp172
Rp173
ag3
(g7
S'\xd2|z\x19\xa6:\xa7@'
p174
tp175
Rp176
atp177
sI10
((lp178
F0.04319500923156738
aF0.013159990310668945
aF0.047415971755981445
aF0.022962093353271484
aF0.05687594413757324
a(lp179
g3
(g7
S'\xac\x84u\x84\xe8\x99\x18@'
p180
tp181
Rp182
ag3
(g7
S'/54n:\x02\x1f@'
p183
tp184
Rp185
ag3
(g7
S'\x07\x0f\x8c\x06\xfa\x0b\x18@'
p186
tp187
Rp188
ag3
(g7
S'\x08\x9d:?\x95=\x19@'
p189
tp190
Rp191
ag3
(g7
S'i\xa8\xad\x8c\x88p\x16@'
p192
tp193
Rp194
aN(lp195
g3
(g7
S'*\x9a\x1b\xa6\xfe:\xc3@'
p196
tp197
Rp198
ag3
(g7
S'\xdb\xc3\xc3_d\x80\xc2@'
p199
tp200
Rp201
ag3
(g7
S'\x88!Z-\xa8\t\xc2@'
p202
tp203
Rp204
ag3
(g7
S'\x1au=7\x15\xe6\xc1@'
p205
tp206
Rp207
ag3
(g7
S'\xbe\xacH\xfb:\x9b\xc1@'
p208
tp209
Rp210
atp211
sI11
((lp212
F0.0280759334564209
aF0.02958393096923828
aF0.02720785140991211
aF0.09566807746887207
aF0.04720902442932129
a(lp213
g3
(g7
S'\x9a\x83\xe0\x1f\xe4`#@'
p214
tp215
Rp216
ag3
(g7
S'\x9a\x17\xedI\xb2\xd1"@'
p217
tp218
Rp219
ag3
(g7
S'5\x87p\xe1\x98`#@'
p220
tp221
Rp222
ag3
(g7
S'/-\xc7\xc2\x14( @'
p223
tp224
Rp225
ag3
(g7
S's\x15N\x93\xd2\xbc!@'
p226
tp227
Rp228
aN(lp229
g3
(g7
S'M\xfa\xfb\xcb\x18\x08\x03A'
p230
tp231
Rp232
ag3
(g7
S'\x16\xceIdO>\x02A'
p233
tp234
Rp235
ag3
(g7
S'\xff\xbf\xd7\x92\x12\x12\x02A'
p236
tp237
Rp238
ag3
(g7
S'\x1fk\xdc\xf6\x0c]\x01A'
p239
tp240
Rp241
ag3
(g7
S'^\xea7n\xf1\x1d\x01A'
p242
tp243
Rp244
atp245
sI12
((lp246
F0.028506994247436523
aF0.03141498565673828
aF0.023010969161987305
aF0.023662090301513672
aF0.030445098876953125
a(lp247
g3
(g7
S'N\xdc\x8c\xc1\x81A&@'
p248
tp249
Rp250
ag3
(g7
S'\x9b\xaa\xe4N\xd1\xad$@'
p251
tp252
Rp253
ag3
(g7
S'\x11\xd7\x8f\xb0"\x8f%@'
p254
tp255
Rp256
ag3
(g7
S'\r\xfc\xb8\xe2\x8f\xe0%@'
p257
tp258
Rp259
ag3
(g7
S'\xce(\x15a9>%@'
p260
tp261
Rp262
aN(lp263
g3
(g7
S'\xca^\xfbQ6\x18!A'
p264
tp265
Rp266
ag3
(g7
S'\xd8Uz\xc1\x9e\xbf A'
p267
tp268
Rp269
ag3
(g7
S'\x1d\xf2\x9e\xc3o\xb6 A'
p270
tp271
Rp272
ag3
(g7
S'\xe4\xda\xd6\x04\x96^ A'
p273
tp274
Rp275
ag3
(g7
S'e\xb2\xa3d\xa0H A'
p276
tp277
Rp278
atp279
sI13
((lp280
F0.07738614082336426
aF0.02085280418395996
aF0.03381490707397461
aF0.06015300750732422
aF0.09642601013183594
a(lp281
g3
(g7
S'\xfe\xf3%\xd1\xfeY&@'
p282
tp283
Rp284
ag3
(g7
S'- \x96\x00i\xad)@'
p285
tp286
Rp287
ag3
(g7
S"^d\x9a\xeaKy'@"
p288
tp289
Rp290
ag3
(g7
S'\x10\x0b\x1d\xac9\xb1&@'
p291
tp292
Rp293
ag3
(g7
S'\x89\xdf\xfc\xa2N\x1a%@'
p294
tp295
Rp296
aN(lp297
g3
(g7
S'\xf1#\x9b_\xa9\x0e@A'
p298
tp299
Rp300
ag3
(g7
S'u\xb1E0o\xce?A'
p301
tp302
Rp303
ag3
(g7
S'\xe3\x9c\xf7\x17\x04k?A'
p304
tp305
Rp306
ag3
(g7
S'")\xe0F\xf7\xed>A'
p307
tp308
Rp309
ag3
(g7
S'[\xb0p\xda\xc5b>A'
p310
tp311
Rp312
atp313
sI14
((lp314
F0.009151935577392578
aF0.05634713172912598
aF0.06862807273864746
aF0.023099899291992188
aF0.049803972244262695
a(lp315
g3
(g7
S'qp\xc3\xabMn0@'
p316
tp317
Rp318
ag3
(g7
S'\xaa\x81\xd6\xe3\xde\xa0-@'
p319
tp320
Rp321
ag3
(g7
S'\xf7\xe2+|C\x8e-@'
p322
tp323
Rp324
ag3
(g7
S'\x98\x97\xf5\x9c\xa3\x1f0@'
p325
tp326
Rp327
ag3
(g7
S'(\x0c\xec\x8f\xe2b.@'
p328
tp329
Rp330
aN(lp331
g3
(g7
S'\xbc\xa0\xf6GrN\x83A'
p332
tp333
Rp334
ag3
(g7
S'_\x9d\xd2\xf5\x91\x04\x82A'
p335
tp336
Rp337
ag3
(g7
S'UjTN\x7f|\x81A'
p338
tp339
Rp340
ag3
(g7
S'nU\xf1\xfa\xc4k\x81A'
p341
tp342
Rp343
ag3
(g7
S'\xe0\x9f\xec\xf0jP\x81A'
p344
tp345
Rp346
atp347
sI15
((lp348
F0.08062314987182617
aF0.07455205917358398
aF0.0356450080871582
aF0.08643412590026855
aF0.047020912170410156
a(lp349
g3
(g7
S'_s\xc0S7\xc11@'
p350
tp351
Rp352
ag3
(g7
S'\x86\x91O\x1dg\xe91@'
p353
tp354
Rp355
ag3
(g7
S'\xbb\xed*\xda\x14\x802@'
p356
tp357
Rp358
ag3
(g7
S'\xc4\x97\x9a \xc8\x9f1@'
p359
tp360
Rp361
ag3
(g7
S'\xa6\xdb\x163<\x052@'
p362
tp363
Rp364
aN(lp365
g3
(g7
S'v\x9c\xcaw<\xbb\xcbA'
p366
tp367
Rp368
ag3
(g7
S'\xdeu\x0b\xb6\x18"\xcbA'
p369
tp370
Rp371
ag3
(g7
S'\x9b\xd4\xae\x0f\xe2\xf2\xcaA'
p372
tp373
Rp374
ag3
(g7
S'c\x07\xb8w\xf8\x07\xcaA'
p375
tp376
Rp377
ag3
(g7
S'I\xc9\xd5\x8f\x82\xef\xc9A'
p378
tp379
Rp380
atp381
sI16
((lp382
F0.1334078311920166
aF0.25026392936706543
aF0.10614585876464844
aF0.08579301834106445
aF0.2665688991546631
a(lp383
g3
(g7
S'<4\xf7V\xf9`1@'
p384
tp385
Rp386
ag3
(g7
S'\xe4\x95\x8e\x0b\x1f\xeb0@'
p387
tp388
Rp389
ag3
(g7
S'\x9d\x85tX\x82Y1@'
p390
tp391
Rp392
ag3
(g7
S'\x14R\xc0\x9c\x13Z2@'
p393
tp394
Rp395
ag3
(g7
S'yQ\xc4\x0cG\xbe0@'
p396
tp397
Rp398
aN(lp399
g3
(g7
S'\x19\xe0\xe8\x10\xdeo\xd2A'
p400
tp401
Rp402
ag3
(g7
S'\xfa\xd4\xacp]\x0b\xd1A'
p403
tp404
Rp405
ag3
(g7
S'\xbd-\xa3\xb4\x9f\xcb\xd0A'
p406
tp407
Rp408
ag3
(g7
S'\x96\xf1.\xaa\xd5\xad\xd0A'
p409
tp410
Rp411
ag3
(g7
S'\x13-\rg\x1fU\xd0A'
p412
tp413
Rp414
atp415
sI17
((lp416
F0.02967095375061035
aF0.04822492599487305
aF0.07659101486206055
aF0.022807836532592773
aF0.0455927848815918
a(lp417
g3
(g7
S'\x01\xd0\xe8\xe3\x18\xb26@'
p418
tp419
Rp420
ag3
(g7
S'x\xa5\xa5r\xde\xdb5@'
p421
tp422
Rp423
ag3
(g7
S'\x9f\x84=\xc2Cy5@'
p424
tp425
Rp426
ag3
(g7
S'po\xb7n\xfd\xa87@'
p427
tp428
Rp429
ag3
(g7
S'\xa5\xb369U%6@'
p430
tp431
Rp432
aN(lp433
g3
(g7
S'\x9e\x84\xd4\xca\xce\xef#B'
p434
tp435
Rp436
ag3
(g7
S'7,\xc8^+C#B'
p437
tp438
Rp439
ag3
(g7
S'\x8bg\xf3\x1f"\xee"B'
p440
tp441
Rp442
ag3
(g7
S'\x8cx\xe9!I\xe5"B'
p443
tp444
Rp445
ag3
(g7
S'a\xc1\xa8\xec\x96\x98"B'
p446
tp447
Rp448
atp449
sI18
((lp450
F0.026646852493286133
aF0.0239260196685791
aF0.09940791130065918
aF0.0697329044342041
aF0.18604803085327148
a(lp451
g3
(g7
S'\x86\x06x@-\xdb8@'
p452
tp453
Rp454
ag3
(g7
S'\xaf\x01\xd8D\xd2\xb67@'
p455
tp456
Rp457
ag3
(g7
S'\xdd;\nq\tn6@'
p458
tp459
Rp460
ag3
(g7
S'J\x17? !\xdd6@'
p461
tp462
Rp463
ag3
(g7
S'\xd2\x7fc\\o\x006@'
p464
tp465
Rp466
aN(lp467
g3
(g7
S'\xd7`m\x08\x9b\xc96B'
p468
tp469
Rp470
ag3
(g7
S'\x0c\x1b\x81\x0eU\xa76B'
p471
tp472
Rp473
ag3
(g7
S'}|\x8coT:6B'
p474
tp475
Rp476
ag3
(g7
S'\xaf\x12\xb3`\xde\x1f6B'
p477
tp478
Rp479
ag3
(g7
S'\xcd\xdd#\xa8\x83\x026B'
p480
tp481
Rp482
atp483
sI19
((lp484
F0.07986688613891602
aF0.373568058013916
aF0.3055691719055176
aF0.015184879302978516
aF0.07640814781188965
a(lp485
g3
(g7
S'\x10\x89}L\xd2\xc59@'
p486
tp487
Rp488
ag3
(g7
S'\x97g\x07\x1b.\xf87@'
p489
tp490
Rp491
ag3
(g7
S'z\xfak>\xaen8@'
p492
tp493
Rp494
ag3
(g7
S'\x99q\x18\x1e\xe8c;@'
p495
tp496
Rp497
ag3
(g7
S'\x94\x00\xfb\xf6nn:@'
p498
tp499
Rp500
aN(lp501
g3
(g7
S'\x8f\x1f\xa4\x9an\x9e{B'
p502
tp503
Rp504
ag3
(g7
S'\x19\x1a\x8b;\x05\x92zB'
p505
tp506
Rp507
ag3
(g7
S'z\xd3\xae\xf5<]zB'
p508
tp509
Rp510
ag3
(g7
S'U\t\xae\x1bK[zB'
p511
tp512
Rp513
ag3
(g7
S"\xc2\xf5'\xd88QzB"
p514
tp515
Rp516
atp517
sI20
((lp518
F0.22673892974853516
aF0.24895691871643066
aF0.21725916862487793
aF0.5886518955230713
aF0.268172025680542
a(lp519
g3
(g7
S'\x1c\xf3\xf6\xd5\xc1\x04:@'
p520
tp521
Rp522
ag3
(g7
S'\xf8\x07\x96\x92\x81/:@'
p523
tp524
Rp525
ag3
(g7
S'\xca5|\x1a\x8e\x18:@'
p526
tp527
Rp528
ag3
(g7
S'\xc3\xf7\xfc\xf6\xa8\x179@'
p529
tp530
Rp531
ag3
(g7
S'\x81\xe8j\xca\xbf>:@'
p532
tp533
Rp534
aN(lp535
g3
(g7
S'}\x8dI\xdb*\x0b\x9cB'
p536
tp537
Rp538
ag3
(g7
S'\xe0\xb4\x00\x99t\xde\x9bB'
p539
tp540
Rp541
ag3
(g7
S'\xbe\x89\xf0S\x0c\xce\x9bB'
p542
tp543
Rp544
ag3
(g7
S'\xa5`\xa5\x02\xbc\x8a\x9bB'
p545
tp546
Rp547
ag3
(g7
S'.\xd7\x11Y\xf9z\x9bB'
p548
tp549
Rp550
atp551
sI21
((lp552
F0.05379509925842285
aF0.15490293502807617
aF0.04256010055541992
aF0.45739316940307617
aF0.10190105438232422
a(lp553
g3
(g7
S'\x95(\x1fIR\xbd?@'
p554
tp555
Rp556
ag3
(g7
S'XM\xe3@\xb3\x19>@'
p557
tp558
Rp559
ag3
(g7
S'\xaa\x8d~\xf6\x7fO?@'
p560
tp561
Rp562
ag3
(g7
S'\xf0\x8b\xbc|.I=@'
p563
tp564
Rp565
ag3
(g7
S'r\xe3\x9ajL\x96>@'
p566
tp567
Rp568
aN(lp569
g3
(g7
S'\xb0\xb0\xa5T\t\xcb\xefB'
p570
tp571
Rp572
ag3
(g7
S'\x9c\x932\xb5\xb7i\xeeB'
p573
tp574
Rp575
ag3
(g7
S'\xa1\nm\xfb\xd1V\xeeB'
p576
tp577
Rp578
ag3
(g7
S'T6 u\x04^\xedB'
p579
tp580
Rp581
ag3
(g7
S'\x12v\x03\x83\xb9\x19\xedB'
p582
tp583
Rp584
atp585
sI22
((lp586
F0.11575198173522949
aF0.15708208084106445
aF0.07380104064941406
aF0.21728801727294922
aF0.021723031997680664
a(lp587
g3
(g7
S'\x9f2\xaf\xa5\x97\xea@@'
p588
tp589
Rp590
ag3
(g7
S'a\xd8#r/\xaa@@'
p591
tp592
Rp593
ag3
(g7
S'\xcb\x80.\x99\xa7\xea@@'
p594
tp595
Rp596
ag3
(g7
S'qsM\xe5:e@@'
p597
tp598
Rp599
ag3
(g7
S'B]w:\xc1\xb5A@'
p600
tp601
Rp602
aN(lp603
g3
(g7
S'\xbc\x02\x00\xb3\xf1\xfb.C'
p604
tp605
Rp606
ag3
(g7
S'\xa8w\xab?\x80\xa0.C'
p607
tp608
Rp609
ag3
(g7
S'\xecCw\xd7O\x8e.C'
p610
tp611
Rp612
ag3
(g7
S"\x12\xc7\xcd'kB.C"
p613
tp614
Rp615
ag3
(g7
S'\xb0\x7f\x91(>".C'
p616
tp617
Rp618
atp619
sI23
((lp620
F0.11158919334411621
aF0.12368988990783691
aF0.08227705955505371
aF0.02371501922607422
aF0.4863111972808838
a(lp621
g3
(g7
S'&\xea\x90:[\xa9B@'
p622
tp623
Rp624
ag3
(g7
S'%o\x087\x86\xa2B@'
p625
tp626
Rp627
ag3
(g7
S'\xfc\xbe\xd9\xb9\xaa\xd0B@'
p628
tp629
Rp630
ag3
(g7
S"\xec~'\xfc\x92wD@"
p631
tp632
Rp633
ag3
(g7
S'\x95\xa6\xff,\xb1\x92A@'
p634
tp635
Rp636
aN(lp637
g3
(g7
S'\n\xdb\xc8\xd9\xc4\nuC'
p638
tp639
Rp640
ag3
(g7
S'K"\xe5\xda\\\xf0tC'
p641
tp642
Rp643
ag3
(g7
S'/\xc4)Zf\xd0tC'
p644
tp645
Rp646
ag3
(g7
S'z\xc8\x14\xb9Y\xbatC'
p647
tp648
Rp649
ag3
(g7
S't\x07\xec\x9f4QtC'
p650
tp651
Rp652
atp653
sI24
((lp654
F0.5074591636657715
aF0.4843108654022217
aF0.025409936904907227
aF0.28321003913879395
aF0.704085111618042
a(lp655
g3
(g7
S'\xca*\x1f\x85\xd0\xb9B@'
p656
tp657
Rp658
ag3
(g7
S'\xa5\x9a\xe8\xd1\xbf\xcaB@'
p659
tp660
Rp661
ag3
(g7
S'\xd3\xa2\xe0vJ\x06E@'
p662
tp663
Rp664
ag3
(g7
S'\xca\x0b&*\xde\xecB@'
p665
tp666
Rp667
ag3
(g7
S'\xb2\xaf{\x92\x12vB@'
p668
tp669
Rp670
aN(lp671
g3
(g7
S'7\x85\xc0\xa1\xb0\x9b\xa7C'
p672
tp673
Rp674
ag3
(g7
S'\xfb99\x1a\x9e{\xa7C'
p675
tp676
Rp677
ag3
(g7
S'j\xc3\x8a\xb7\xe4z\xa7C'
p678
tp679
Rp680
ag3
(g7
S'(\xa4\x82\x8b\x1du\xa7C'
p681
tp682
Rp683
ag3
(g7
S'O\r5\x89dc\xa7C'
p684
tp685
Rp686
atp687
sI25
((lp688
F0.32758307456970215
aF0.4375729560852051
aF0.1746840476989746
aF0.27939414978027344
aF0.19152307510375977
a(lp689
g3
(g7
S'9\xcbM\xf7\xc6lC@'
p690
tp691
Rp692
ag3
(g7
S'\xd0|\x0c\xc5#4C@'
p693
tp694
Rp695
ag3
(g7
S'\xdf\xb5>dd\xffC@'
p696
tp697
Rp698
ag3
(g7
S'=\xf3\x00\xd2\xbc\x8cC@'
p699
tp700
Rp701
ag3
(g7
S'y\xee\x05\xf4Y\x19D@'
p702
tp703
Rp704
aN(lp705
g3
(g7
S'*\x91eS\xcd\t\xc2C'
p706
tp707
Rp708
ag3
(g7
S'b\xf5\x98\x89t\xc9\xc1C'
p709
tp710
Rp711
ag3
(g7
S'\xcfq\xb5\xf4\x90\xb8\xc1C'
p712
tp713
Rp714
ag3
(g7
S'\xbe\xe7\xb0b\xab\x9b\xc1C'
p715
tp716
Rp717
ag3
(g7
S'`\x0fG,\x1f\x94\xc1C'
p718
tp719
Rp720
atp721
sI26
((lp722
F0.12519502639770508
aF0.5316941738128662
aF0.19556689262390137
aF0.355010986328125
aF2.0653250217437744
a(lp723
g3
(g7
S'?l(\xe6\xd1^F@'
p724
tp725
Rp726
ag3
(g7
S'\t\x983v/kE@'
p727
tp728
Rp729
ag3
(g7
S'\xac\xda\xe7G\xeb\xc9E@'
p730
tp731
Rp732
ag3
(g7
S'\xe5r\xfd\xb4\x18\xd8E@'
p733
tp734
Rp735
ag3
(g7
S'y7\xae\xfe\x07\xbfD@'
p736
tp737
Rp738
aN(lp739
g3
(g7
S'\xe6\xc9\x9b\xd9\xb1A"D'
p740
tp741
Rp742
ag3
(g7
S'6w\xb5>\x16\xe6!D'
p743
tp744
Rp745
ag3
(g7
S'f\x82\x96]\x91\xd9!D'
p746
tp747
Rp748
ag3
(g7
S'Xy2\xe4U\xad!D'
p749
tp750
Rp751
ag3
(g7
S'Ko\xb3\xe0\xe4_!D'
p752
tp753
Rp754
atp755
sI27
((lp756
F0.5491118431091309
aF0.34897589683532715
aF0.6086580753326416
aF0.30298519134521484
aF0.034596920013427734
a(lp757
g3
(g7
S'7\xbf\x14\xa5pvF@'
p758
tp759
Rp760
ag3
(g7
S'\x9f\x94~!7\xadF@'
p761
tp762
Rp763
ag3
(g7
S'?N\xf0\xca\x17{F@'
p764
tp765
Rp766
ag3
(g7
S'\xa5#B\xe5]\xccF@'
p767
tp768
Rp769
ag3
(g7
S'\x15QB\xa4LMH@'
p770
tp771
Rp772
aN(lp773
g3
(g7
S'\xd2C\x1b\x98w=UD'
p774
tp775
Rp776
ag3
(g7
S'\xc3\xce\x94W\xb7\x13UD'
p777
tp778
Rp779
ag3
(g7
S':\xd33\x05\xf5\xe7TD'
p780
tp781
Rp782
ag3
(g7
S'\xd8\xd4\x8b\xe0\xda\xdbTD'
p783
tp784
Rp785
ag3
(g7
S'2\xdb\x8c\xe8\xb2\xdbTD'
p786
tp787
Rp788
atp789
sI28
((lp790
F0.04057002067565918
aF0.03610801696777344
aF0.29305481910705566
aF0.41667914390563965
aF0.22632193565368652
a(lp791
g3
(g7
S'$\xd7P\xa4\xdb\x0bI@'
p792
tp793
Rp794
ag3
(g7
S'\x87\x0fqN\xfeWJ@'
p795
tp796
Rp797
ag3
(g7
S";2Po'.H@"
p798
tp799
Rp800
ag3
(g7
S'\xbd4"\xde\xe3\xcaG@'
p801
tp802
Rp803
ag3
(g7
S'#\xaa\xec\x82\x9bQH@'
p804
tp805
Rp806
aN(lp807
g3
(g7
S'\xd9\x96\xbf(W9\x88D'
p808
tp809
Rp810
ag3
(g7
S'\xc0\x02\xaf\xd2\xa5$\x88D'
p811
tp812
Rp813
ag3
(g7
S'\x01\x0fW\xf9\x9d\xdb\x87D'
p814
tp815
Rp816
ag3
(g7
S"\xcf'\xcaH\xc0m\x87D"
p817
tp818
Rp819
ag3
(g7
S'\xf9t6\x93\xa3a\x87D'
p820
tp821
Rp822
atp823
sI29
((lp824
F0.5060141086578369
aF0.23121190071105957
aF0.4409158229827881
aF0.3076438903808594
aF0.05821585655212402
a(lp825
g3
(g7
S'\x0eH\xbc\xd5\xc9jI@'
p826
tp827
Rp828
ag3
(g7
S'\xd2x0\x11\x16\xd7I@'
p829
tp830
Rp831
ag3
(g7
S'k\xc3\x17J\x91\x0cI@'
p832
tp833
Rp834
ag3
(g7
S'8\xbc\x82\xf3\x9dxI@'
p835
tp836
Rp837
ag3
(g7
S'{@\x1a\xfd\xb5!J@'
p838
tp839
Rp840
aN(lp841
g3
(g7
S'\x85\xe7\xefo\xb9\xdd\xcfD'
p842
tp843
Rp844
ag3
(g7
S'jlmcq\xcd\xcfD'
p845
tp846
Rp847
ag3
(g7
S'\xcfb#\x1e\xb0\xb3\xcfD'
p848
tp849
Rp850
ag3
(g7
S'\xebw\xf4[\xab\xa3\xcfD'
p851
tp852
Rp853
ag3
(g7
S'\xb6\xa4\x1eJ\xe3\x9f\xcfD'
p854
tp855
Rp856
atp857
sI30
((lp858
F0.7324650287628174
aF0.17488884925842285
aF0.9544031620025635
aF0.4862649440765381
aF0.1548628807067871
a(lp859
g3
(g7
S'\xb9\xf8{uQ J@'
p860
tp861
Rp862
ag3
(g7
S'\xc0\xa6IO\x0c\x8bJ@'
p863
tp864
Rp865
ag3
(g7
S'R\x0f\xa1s\xc3\xecI@'
p866
tp867
Rp868
ag3
(g7
S'3\xb9\x13\xbf\xae\x82J@'
p869
tp870
Rp871
ag3
(g7
S'\x12\xb9\x94\xb8G\xdbJ@'
p872
tp873
Rp874
aN(lp875
g3
(g7
S'L\xbb\x82vli\xfbD'
p876
tp877
Rp878
ag3
(g7
S'X[H1\xc7[\xfbD'
p879
tp880
Rp881
ag3
(g7
S',\xf7\x0cwH\x04\xfbD'
p882
tp883
Rp884
ag3
(g7
S'\x89\x07\xafs\xea\xf4\xfaD'
p885
tp886
Rp887
ag3
(g7
S'C\x7fY\xdb\xcf\xf2\xfaD'
p888
tp889
Rp890
atp891
sI31
((lp892
F1.574751853942871
aF0.0815742015838623
aF0.17412209510803223
aF0.4871342182159424
aF0.5292699337005615
a(lp893
g3
(g7
S'\x84\x04\xef\\\xf1\x87K@'
p894
tp895
Rp896
ag3
(g7
S'.\xd0\xfe,\xda\xfbL@'
p897
tp898
Rp899
ag3
(g7
S'\xfd\xf5;L\xc5FL@'
p900
tp901
Rp902
ag3
(g7
S'\xa1n\x13d \xedK@'
p903
tp904
Rp905
ag3
(g7
S'\x1e\xae\xe2\xbe\xd3\rL@'
p906
tp907
Rp908
aN(lp909
g3
(g7
S'\xf3\xb8\xea\xf1\x00\xa3GE'
p910
tp911
Rp912
ag3
(g7
S'\x00r\xdb\x80\xf6\xa0GE'
p913
tp914
Rp915
ag3
(g7
S'\xf14\xe8\xa4\xe4\x9aGE'
p916
tp917
Rp918
ag3
(g7
S'\x90\xa9D\xd0j}GE'
p919
tp920
Rp921
ag3
(g7
S'\xd8P\xf2\x86\x18nGE'
p922
tp923
Rp924
atp925
sI32
((lp926
F3.2406420707702637
aF2.0717601776123047
aF0.6630821228027344
aF0.29546594619750977
aF1.0366649627685547
a(lp927
g3
(g7
S'\xb3v\xd4\xbd\x83+L@'
p928
tp929
Rp930
ag3
(g7
S'\x0b\xcbd^\x07kL@'
p931
tp932
Rp933
ag3
(g7
S'\x14\x0bc\xefp\xc2L@'
p934
tp935
Rp936
ag3
(g7
S'\xb7\x97\xe1Y\x86\xf6L@'
p937
tp938
Rp939
ag3
(g7
S' @\xd4\xc9_\xd1L@'
p940
tp941
Rp942
aN(lp943
g3
(g7
S'\x95\xa8\xde\xa90otE'
p944
tp945
Rp946
ag3
(g7
S';.\tT\xb6ftE'
p947
tp948
Rp949
ag3
(g7
S'\x11\x89 \xd4*atE'
p950
tp951
Rp952
ag3
(g7
S'\x96\x07\x9e\x85\xd5_tE'
p953
tp954
Rp955
ag3
(g7
S'\x82\x88\xe6{\xb7[tE'
p956
tp957
Rp958
atp959
sI33
((lp960
F0.23815298080444336
aF0.0691978931427002
aF0.641150951385498
aF0.09512114524841309
aF0.17431402206420898
a(lp961
g3
(g7
S'\xf4\xe0\xd7o\x8a\xd7O@'
p962
tp963
Rp964
ag3
(g7
S'\x92\xcbCS\x12\xa8O@'
p965
tp966
Rp967
ag3
(g7
S'\r \xc94\x94\xd3N@'
p968
tp969
Rp970
ag3
(g7
S'\x90\xcc\x7f\xb0AlO@'
p971
tp972
Rp973
ag3
(g7
S'\xec\xfc\x86nd\xf5O@'
p974
tp975
Rp976
aN(lp977
g3
(g7
S'\x92\x9d\x87\xfc\x831\xcaE'
p978
tp979
Rp980
ag3
(g7
S'\xe21\x06\x13y&\xcaE'
p981
tp982
Rp983
ag3
(g7
S'4\xeb\xa4\xc0a\x01\xcaE'
p984
tp985
Rp986
ag3
(g7
S';\xe8\xed\xe5I\xfd\xc9E'
p987
tp988
Rp989
ag3
(g7
S'\xfei\xec\xc7\xdb\xf7\xc9E'
p990
tp991
Rp992
atp993
sI34
((lp994
F0.3690521717071533
aF0.9216959476470947
aF0.4056110382080078
aF1.4787120819091797
aF0.05745220184326172
a(lp995
g3
(g7
S'\x0c\xdb\xf7\xc3`\x13P@'
p996
tp997
Rp998
ag3
(g7
S'2\x84w\xab9\x89O@'
p999
tp1000
Rp1001
ag3
(g7
S't\x8e(\xa2\xf9\x01P@'
p1002
tp1003
Rp1004
ag3
(g7
S'\\\x1c\x1b-oQO@'
p1005
tp1006
Rp1007
ag3
(g7
S'k\xa4)\x93\xbb\xc2P@'
p1008
tp1009
Rp1010
aN(lp1011
g3
(g7
S'o\x8d(\x9eXD\xf5E'
p1012
tp1013
Rp1014
ag3
(g7
S'\x02\x89jZ\xc5\x1a\xf5E'
p1015
tp1016
Rp1017
ag3
(g7
S'\xc0o\xf8\xc1\xa9\x12\xf5E'
p1018
tp1019
Rp1020
ag3
(g7
S'\x83z\xed\x0eq\x01\xf5E'
p1021
tp1022
Rp1023
ag3
(g7
S'lm\x9eQS\x01\xf5E'
p1024
tp1025
Rp1026
atp1027
sI35
((lp1028
F0.864260196685791
aF1.0024030208587646
aF0.3560922145843506
aF0.6204328536987305
aF0.22566699981689453
a(lp1029
g3
(g7
S'R\t\x93\x84>\xcaP@'
p1030
tp1031
Rp1032
ag3
(g7
S'5\xfe\x01\xb5/\xacP@'
p1033
tp1034
Rp1035
ag3
(g7
S'a\xb2\xf5v~\xd9P@'
p1036
tp1037
Rp1038
ag3
(g7
S'\xa5\x0c\xdc\xb4\xc4\xdeP@'
p1039
tp1040
Rp1041
ag3
(g7
S'\xce9\x07b"\x88Q@'
p1042
tp1043
Rp1044
aN(lp1045
g3
(g7
S'\xa4\xa1a\xd3\xd9~LF'
p1046
tp1047
Rp1048
ag3
(g7
S'\xa1g\x90@\xdeYLF'
p1049
tp1050
Rp1051
ag3
(g7
S' \x0e[\xef\xa3NLF'
p1052
tp1053
Rp1054
ag3
(g7
S'\x1cHp\x81hCLF'
p1055
tp1056
Rp1057
ag3
(g7
S'\x10\xc3\x1d\x83\xc2ALF'
p1058
tp1059
Rp1060
atp1061
sI36
((lp1062
F2.4057061672210693
aF0.2026228904724121
aF1.1717238426208496
aF2.1766300201416016
aF0.06618905067443848
a(lp1063
g3
(g7
S'\x8fe\xdc\x86h\x83Q@'
p1064
tp1065
Rp1066
ag3
(g7
S'A0$\x05H<R@'
p1067
tp1068
Rp1069
ag3
(g7
S'\x92L\x08\x8c\xcf\xc1Q@'
p1070
tp1071
Rp1072
ag3
(g7
S'\xa8k\x02\x82\x99\x98Q@'
p1073
tp1074
Rp1075
ag3
(g7
S'nK)\x0b\xc5YR@'
p1076
tp1077
Rp1078
aN(lp1079
g3
(g7
S'@5\xc8\x1a\xee\xee\xa7F'
p1080
tp1081
Rp1082
ag3
(g7
S'\xc8\xc9\xc0\xa5\x0b\xec\xa7F'
p1083
tp1084
Rp1085
ag3
(g7
S'\xc6Aut\xf7\xe2\xa7F'
p1086
tp1087
Rp1088
ag3
(g7
S'\xe0UF]a\xdb\xa7F'
p1089
tp1090
Rp1091
ag3
(g7
S'aG\x0bnY\xdb\xa7F'
p1092
tp1093
Rp1094
atp1095
sI37
((lp1096
F1.7917180061340332
aF0.37795400619506836
aF2.73474383354187
aF0.9928648471832275
aF0.3068399429321289
a(lp1097
g3
(g7
S'\x1ay\x04\xea\xa8\x95R@'
p1098
tp1099
Rp1100
ag3
(g7
S'*%\xbd \x8d\xaaR@'
p1101
tp1102
Rp1103
ag3
(g7
S'W\xben\x97\xc1QR@'
p1104
tp1105
Rp1106
ag3
(g7
S"\xd5A'\xbf+\x8dR@"
p1107
tp1108
Rp1109
ag3
(g7
S'c\x1eK\xa9\xa4\xdeR@'
p1110
tp1111
Rp1112
aN(lp1113
g3
(g7
S'\x1eO\xae\xd9l}\xf4F'
p1114
tp1115
Rp1116
ag3
(g7
S'\xb5 {\xba\xcfr\xf4F'
p1117
tp1118
Rp1119
ag3
(g7
S'\xf6\x7fg\x9f\xaaO\xf4F'
p1120
tp1121
Rp1122
ag3
(g7
S'8\xae\xea\r0G\xf4F'
p1123
tp1124
Rp1125
ag3
(g7
S'\x06\xb9l6\x02D\xf4F'
p1126
tp1127
Rp1128
atp1129
sI38
((lp1130
F3.3419301509857178
aF0.5280640125274658
aF1.010895013809204
aF0.8690638542175293
aF0.5425760746002197
a(lp1131
g3
(g7
S'\xa0\xbf\xc0\x84H\xdcR@'
p1132
tp1133
Rp1134
ag3
(g7
S'{tM\x0c\x07BS@'
p1135
tp1136
Rp1137
ag3
(g7
S'fA\xc0\xbc\xdd!S@'
p1138
tp1139
Rp1140
ag3
(g7
S'>\xb8\xe6\xe4\x81BS@'
p1141
tp1142
Rp1143
ag3
(g7
S'\xfe&V\xa3\xa1PS@'
p1144
tp1145
Rp1146
aN(lp1147
g3
(g7
S'\xcd\xc2\xb0B\xa9D$G'
p1148
tp1149
Rp1150
ag3
(g7
S'55&"\xc5A$G'
p1151
tp1152
Rp1153
ag3
(g7
S'\r\xe0mK\x927$G'
p1154
tp1155
Rp1156
ag3
(g7
S'\x81\xb3La\x162$G'
p1157
tp1158
Rp1159
ag3
(g7
S'\x12\x13\x1c0D-$G'
p1160
tp1161
Rp1162
atp1163
sI39
((lp1164
F0.699476957321167
aF1.292233943939209
aF2.8902270793914795
aF0.6762042045593262
aF0.3003711700439453
a(lp1165
g3
(g7
S'\x13P\x88wK\xf0S@'
p1166
tp1167
Rp1168
ag3
(g7
S'j\x17~\x8e%\xd1S@'
p1169
tp1170
Rp1171
ag3
(g7
S'\x0c\xe9\x0c\x12\x9d\x9cS@'
p1172
tp1173
Rp1174
ag3
(g7
S'_\x0ck\xd2t\xf2S@'
p1175
tp1176
Rp1177
ag3
(g7
S'\x94;\xf2f\x9aZT@'
p1178
tp1179
Rp1180
aN(lp1181
g3
(g7
S'\xc4\x0e\xfb\xa2"%iG'
p1182
tp1183
Rp1184
ag3
(g7
S'D\xa3\t\xda\x9d\xfdhG'
p1185
tp1186
Rp1187
ag3
(g7
S'\xc3\xfbq_\xb8\xcfhG'
p1188
tp1189
Rp1190
ag3
(g7
S'-)\x00\x86\x1e\xcchG'
p1191
tp1192
Rp1193
ag3
(g7
S'\xeb7C\x1f\xff\xcahG'
p1194
tp1195
Rp1196
atp1197
sI40
((lp1198
F2.0357539653778076
aF0.6535089015960693
aF0.2661740779876709
aF0.4438440799713135
aF1.1219489574432373
a(lp1199
g3
(g7
S'\xbc\xb6\x90\xc1hPT@'
p1200
tp1201
Rp1202
ag3
(g7
S'\xa1\xad\xd4O\xee\xbcT@'
p1203
tp1204
Rp1205
ag3
(g7
S'\xae3\xb8\xd2J\xbdT@'
p1206
tp1207
Rp1208
ag3
(g7
S'u\xd2\xectm\xccT@'
p1209
tp1210
Rp1211
ag3
(g7
S'\x0f\n:\x02\ryT@'
p1212
tp1213
Rp1214
aN(lp1215
g3
(g7
S'\xdao\x96\x8au\xdc\xa1G'
p1216
tp1217
Rp1218
ag3
(g7
S'\ra\x93L\x1a\xd8\xa1G'
p1219
tp1220
Rp1221
ag3
(g7
S'\xa3\xf8V\x98S\xd7\xa1G'
p1222
tp1223
Rp1224
ag3
(g7
S'\xfc\xd2Vp\xb6\xcc\xa1G'
p1225
tp1226
Rp1227
ag3
(g7
S'\x1b)\xc9d\x9c\xc4\xa1G'
p1228
tp1229
Rp1230
atp1231
sI41
((lp1232
F1.5498509407043457
aF1.0364508628845215
aF0.15336203575134277
aF1.2358489036560059
aF1.8166630268096924
a(lp1233
g3
(g7
S'\xc7\xf0\x1b*X0U@'
p1234
tp1235
Rp1236
ag3
(g7
S'\x83I0\xcb6@U@'
p1237
tp1238
Rp1239
ag3
(g7
S'\x82\x98\xad\x8c&\xc6U@'
p1240
tp1241
Rp1242
ag3
(g7
S'\x9e7\xa4\x08m(U@'
p1243
tp1244
Rp1245
ag3
(g7
S'\xea;\xb5\xf9\xe4\x15U@'
p1246
tp1247
Rp1248
aN(lp1249
g3
(g7
S'\x0ew\xd3\xd6=7\xe3G'
p1250
tp1251
Rp1252
ag3
(g7
S'\xec+U\xbd>)\xe3G'
p1253
tp1254
Rp1255
ag3
(g7
S'\xdb\x95\xee\xfa\x13)\xe3G'
p1256
tp1257
Rp1258
ag3
(g7
S'8\x8e?\x1e\xf4\x1d\xe3G'
p1259
tp1260
Rp1261
ag3
(g7
S'\xf3\xf8\xef#\xdf\x18\xe3G'
p1262
tp1263
Rp1264
atp1265
sI42
((lp1266
F0.12881708145141602
aF0.09755110740661621
aF1.7228457927703857
aF1.0782229900360107
aF1.720282793045044
a(lp1267
g3
(g7
S'f\xd3\xf1\xb8/\xd7V@'
p1268
tp1269
Rp1270
ag3
(g7
S'\xda\x96YJ\x15\xc6V@'
p1271
tp1272
Rp1273
ag3
(g7
S'8\xa0X\xff\xae\x0cV@'
p1274
tp1275
Rp1276
ag3
(g7
S'j\xfae\t\xc6\xfaU@'
p1277
tp1278
Rp1279
ag3
(g7
S'\x91+\xf0\xcd\xa2\x02V@'
p1280
tp1281
Rp1282
aN(lp1283
g3
(g7
S'\x85\xd5-\x90\xc1u0H'
p1284
tp1285
Rp1286
ag3
(g7
S'\xa12f\xb2\x95s0H'
p1287
tp1288
Rp1289
ag3
(g7
S'\xc8<\xc2\x87\x8cV0H'
p1290
tp1291
Rp1292
ag3
(g7
S'\x8b\xc3\xba\xb5fH0H'
p1293
tp1294
Rp1295
ag3
(g7
S'\xa7\xd8\x99z\xde?0H'
p1296
tp1297
Rp1298
atp1299
sI43
((lp1300
F0.3767588138580322
aF6.048594951629639
aF5.446390867233276
aF0.6546659469604492
aF2.403027057647705
a(lp1301
g3
(g7
S'\xed/\x10\xc5\xe4+W@'
p1302
tp1303
Rp1304
ag3
(g7
S'\x8c\xd9\xf0\xa5\x1a\x7fV@'
p1305
tp1306
Rp1307
ag3
(g7
S'$d\x8d\xc02\x92V@'
p1308
tp1309
Rp1310
ag3
(g7
S'<7l\xae\xe4\xfeV@'
p1311
tp1312
Rp1313
ag3
(g7
S'\xcal6\x11\xa3\xd0V@'
p1314
tp1315
Rp1316
aN(lp1317
g3
(g7
S'\xc4M\xe0\xfcA7\x80H'
p1318
tp1319
Rp1320
ag3
(g7
S'Q7Z\xcc\x1cs\x7fH'
p1321
tp1322
Rp1323
ag3
(g7
S'\xb4\xf5\xb4\x1a\xc2C\x7fH'
p1324
tp1325
Rp1326
ag3
(g7
S'\xc33\x9e\x92\xef?\x7fH'
p1327
tp1328
Rp1329
ag3
(g7
S'\xf4R\xa8\xa0`1\x7fH'
p1330
tp1331
Rp1332
atp1333
sI44
((lp1334
F3.349081039428711
aF0.23934507369995117
aF2.252722978591919
aF0.4570770263671875
aF1.1977241039276123
a(lp1335
g3
(g7
S'\xd8<\xff\xc0\x86YW@'
p1336
tp1337
Rp1338
ag3
(g7
S',\xdf\x7f\xd9/\x04X@'
p1339
tp1340
Rp1341
ag3
(g7
S'\xc1\xf3\xe1g\x80\x8bW@'
p1342
tp1343
Rp1344
ag3
(g7
S']\xc1\xfd\x01\x8d\xf6W@'
p1345
tp1346
Rp1347
ag3
(g7
S'0:40\xfc\x96W@'
p1348
tp1349
Rp1350
aN(lp1351
g3
(g7
S'"t\xa7\xfa1!\xc1H'
p1352
tp1353
Rp1354
ag3
(g7
S'\xe9w\x96\xda\xcc\x1d\xc1H'
p1355
tp1356
Rp1357
ag3
(g7
S'\xbb\x9e5\xa5"\x0f\xc1H'
p1358
tp1359
Rp1360
ag3
(g7
S'N\xcd8\xaa\xef\r\xc1H'
p1361
tp1362
Rp1363
ag3
(g7
S'\\\xda\x93n\xf3\x08\xc1H'
p1364
tp1365
Rp1366
atp1367
sI45
((lp1368
F1.1435818672180176
aF6.116564035415649
aF4.1206769943237305
aF1.7726609706878662
aF5.9757630825042725
a(lp1369
g3
(g7
S'\xc5\xaf\xef\x00\x06UX@'
p1370
tp1371
Rp1372
ag3
(g7
S'\xe8\x8bP")\xe4W@'
p1373
tp1374
Rp1375
ag3
(g7
S'\x81(\xf8\x03\x9a\xf8W@'
p1376
tp1377
Rp1378
ag3
(g7
S'\x1c\xd6J/\x915X@'
p1379
tp1380
Rp1381
ag3
(g7
S'8\xb4\xbdwN\xd0W@'
p1382
tp1383
Rp1384
aN(lp1385
g3
(g7
S'\xcd\n\t\xb7\xb6\x0f\xfbH'
p1386
tp1387
Rp1388
ag3
(g7
S'B\x11\x9c\xb2\x8c\x94\xfaH'
p1389
tp1390
Rp1391
ag3
(g7
S'p\x04\x94\x15\x8d\x83\xfaH'
p1392
tp1393
Rp1394
ag3
(g7
S'\xb3\x0f\xa7\xdb\x1a\x80\xfaH'
p1395
tp1396
Rp1397
ag3
(g7
S'+<\xf0\xec\xe3n\xfaH'
p1398
tp1399
Rp1400
atp1401
sI46
((lp1402
F11.816887855529785
aF0.6955060958862305
aF0.8976798057556152
aF1.0431361198425293
aF3.2139370441436768
a(lp1403
g3
(g7
S'\x9e\xd6\xcbT\xaa\x86X@'
p1404
tp1405
Rp1406
ag3
(g7
S']\xfd,\xa6-%Y@'
p1407
tp1408
Rp1409
ag3
(g7
S'D\xc9\x1d\xc4PEY@'
p1410
tp1411
Rp1412
ag3
(g7
S'\x83\x08g\x93/ Y@'
p1413
tp1414
Rp1415
ag3
(g7
S'\xa9\t\x9a\x12d\xdeX@'
p1416
tp1417
Rp1418
aN(lp1419
g3
(g7
S'\xf5\xb2\x12\x11 \xa0FI'
p1420
tp1421
Rp1422
ag3
(g7
S'\xf4\x98\xc6\x04t\x9eFI'
p1423
tp1424
Rp1425
ag3
(g7
S'\xca\xe8T6\x15\x9dFI'
p1426
tp1427
Rp1428
ag3
(g7
S'\x818n\xd6H\x99FI'
p1429
tp1430
Rp1431
ag3
(g7
S'!\xfb\x97\xbf\x84\x93FI'
p1432
tp1433
Rp1434
atp1435
sI47
((lp1436
F7.379544973373413
aF3.6073269844055176
aF1.9280340671539307
aF1.6093411445617676
aF2.1069681644439697
a(lp1437
g3
(g7
S'\x84&Aj\xc1\xa1Y@'
p1438
tp1439
Rp1440
ag3
(g7
S'\xa4{e\x06l\xb9Y@'
p1441
tp1442
Rp1443
ag3
(g7
S'\xea\xc0y\xd1\x11\xe6Y@'
p1444
tp1445
Rp1446
ag3
(g7
S'\x8c\xcd\xb3oT\xfdY@'
p1447
tp1448
Rp1449
ag3
(g7
S'\x00X\xeei\xab\xe5Y@'
p1450
tp1451
Rp1452
aN(lp1453
g3
(g7
S'\xdc\x1b\x0c=\x9dO\x9cI'
p1454
tp1455
Rp1456
ag3
(g7
S'\xc6\x89\xd1\xa3\xf09\x9cI'
p1457
tp1458
Rp1459
ag3
(g7
S'\x9f\xfb\x11\xa7\xb77\x9cI'
p1460
tp1461
Rp1462
ag3
(g7
S'M\x80 V\xdf.\x9cI'
p1463
tp1464
Rp1465
ag3
(g7
S'[\x14K\x12U$\x9cI'
p1466
tp1467
Rp1468
atp1469
sI48
((lp1470
F4.263998985290527
aF2.804533004760742
aF0.2666800022125244
aF13.514427900314331
aF2.2566070556640625
a(lp1471
g3
(g7
S'R\xb1]I\xf1iZ@'
p1472
tp1473
Rp1474
ag3
(g7
S'\xf8\x89B*\xc2\x95Z@'
p1475
tp1476
Rp1477
ag3
(g7
S'\x98i\x9a\xa8l8[@'
p1478
tp1479
Rp1480
ag3
(g7
S'\xb5\xfc\x14#\xc30Z@'
p1481
tp1482
Rp1483
ag3
(g7
S'\x7fH\x97\x93\xbb\x9dZ@'
p1484
tp1485
Rp1486
aN(lp1487
g3
(g7
S'Nb\xfa\n@s\xdcI'
p1488
tp1489
Rp1490
ag3
(g7
S'\xb6\xe3\x02\tRU\xdcI'
p1491
tp1492
Rp1493
ag3
(g7
S'\xb3^\x1d0;S\xdcI'
p1494
tp1495
Rp1496
ag3
(g7
S'\xc5\xbc[\x1de"\xdcI'
p1497
tp1498
Rp1499
ag3
(g7
S'\x19\xeb\x07`\x1b!\xdcI'
p1500
tp1501
Rp1502
atp1503
sI49
((lp1504
F2.0503969192504883
aF2.5961339473724365
aF2.4891648292541504
aF0.39136695861816406
aF8.111685037612915
a(lp1505
g3
(g7
S'\x15\xef\x92_\xb0\x91[@'
p1506
tp1507
Rp1508
ag3
(g7
S't\xd9\xee\x7f\xbe\xb5[@'
p1509
tp1510
Rp1511
ag3
(g7
S'\xe0\x80d.n\x92[@'
p1512
tp1513
Rp1514
ag3
(g7
S'\xb5xR\xa8F\x1e\\@'
p1515
tp1516
Rp1517
ag3
(g7
S'\xbd\xd0\x85\x1e\xb6Y[@'
p1518
tp1519
Rp1520
aN(lp1521
g3
(g7
S'\xedB\x0f~\x0b\x1b;J'
p1522
tp1523
Rp1524
ag3
(g7
S'2\xf6C\xeab\x01;J'
p1525
tp1526
Rp1527
ag3
(g7
S'_\x17U\xaa|\xf3:J'
p1528
tp1529
Rp1530
ag3
(g7
S'.v\xab\xb1G\xf2:J'
p1531
tp1532
Rp1533
ag3
(g7
S'a\x07f3#\xe3:J'
p1534
tp1535
Rp1536
atp1537
sI50
((lp1538
F0.33716392517089844
aF1.0052690505981445
aF0.5892179012298584
aF2.2236459255218506
aF1.8116281032562256
a(lp1539
g3
(g7
S"\xc3\x92'\xa4\x99.]@"
p1540
tp1541
Rp1542
ag3
(g7
S'\x97[\x83\xfd>i\\@'
p1543
tp1544
Rp1545
ag3
(g7
S'\xc1e!\xe0X\x9c\\@'
p1546
tp1547
Rp1548
ag3
(g7
S'\xbe`\xbdP\xa8S\\@'
p1549
tp1550
Rp1551
ag3
(g7
S'.:\xd5O\x91~\\@'
p1552
tp1553
Rp1554
aN(lp1555
g3
(g7
S'S\x8b\x99G\xdbwqJ'
p1556
tp1557
Rp1558
ag3
(g7
S'\xc4\xba\x11\n\xe9pqJ'
p1559
tp1560
Rp1561
ag3
(g7
S'\x91\xa1\xbf\x98HnqJ'
p1562
tp1563
Rp1564
ag3
(g7
S'\x07VE\xfd\\cqJ'
p1565
tp1566
Rp1567
ag3
(g7
S'pX\xaf.U^qJ'
p1568
tp1569
Rp1570
atp1571
sI51
((lp1572
F0.3065459728240967
aF0.16292500495910645
aF1.6814310550689697
aF1.0854110717773438
aF8.165997982025146
a(lp1573
g3
(g7
S'\x89H\x95\xf0{2^@'
p1574
tp1575
Rp1576
ag3
(g7
S'F\xce)\xcb\xf3k^@'
p1577
tp1578
Rp1579
ag3
(g7
S'\xd04\xeb\xf9J\x9e]@'
p1580
tp1581
Rp1582
ag3
(g7
S'\xa7\xfd-\xdfO\xaa]@'
p1583
tp1584
Rp1585
ag3
(g7
S'2\xac+\xc0\x800]@'
p1586
tp1587
Rp1588
aN(lp1589
g3
(g7
S'eW\xb21n\xca\xe0J'
p1590
tp1591
Rp1592
ag3
(g7
S'\xa2#v\xc8\xcd\xc8\xe0J'
p1593
tp1594
Rp1595
ag3
(g7
S'e0O\xf1\xd8\xbf\xe0J'
p1596
tp1597
Rp1598
ag3
(g7
S'\x91\xcb\xf4\x98\x8c\xb9\xe0J'
p1599
tp1600
Rp1601
ag3
(g7
S'\xe00j\xc4\xd6\xa4\xe0J'
p1602
tp1603
Rp1604
atp1605
sI52
((lp1606
F2.8388521671295166
aF1.7886059284210205
aF1.558755874633789
aF2.1157290935516357
aF1.3964731693267822
a(lp1607
g3
(g7
S'\x1e\xc6\xe1\x11\xdd7^@'
p1608
tp1609
Rp1610
ag3
(g7
S'I\xb0e\xe8lR^@'
p1611
tp1612
Rp1613
ag3
(g7
S'\xed\xae\xb7,\x81\\^@'
p1614
tp1615
Rp1616
ag3
(g7
S'`\x8e\xcd\xce\xfdD^@'
p1617
tp1618
Rp1619
ag3
(g7
S'\xc1\x951z\x9av^@'
p1620
tp1621
Rp1622
aN(lp1623
g3
(g7
S'\xf4:\xa79\x15=&K'
p1624
tp1625
Rp1626
ag3
(g7
S'\x9b\x8br\x16\xba-&K'
p1627
tp1628
Rp1629
ag3
(g7
S'q\xaa\x17\x1e\x0f\x0e&K'
p1630
tp1631
Rp1632
ag3
(g7
S'I\xcct\xba\x93\t&K'
p1633
tp1634
Rp1635
ag3
(g7
S'\x11U8\xd0\xe8\xfb%K'
p1636
tp1637
Rp1638
atp1639
sI53
((lp1640
F0.2178502082824707
aF2.2558541297912598
aF0.6719160079956055
aF0.5708911418914795
aF1.452578067779541
a(lp1641
g3
(g7
S'\xdah\xa5Q\xc8,_@'
p1642
tp1643
Rp1644
ag3
(g7
S'\x88\xba\xd3\xe0\xac\x97^@'
p1645
tp1646
Rp1647
ag3
(g7
S'[\xd04\xf5\x08\xf7^@'
p1648
tp1649
Rp1650
ag3
(g7
S'\xc4\xaep\x88e\xec^@'
p1651
tp1652
Rp1653
ag3
(g7
S'N\xb1\xb1*=\xd5^@'
p1654
tp1655
Rp1656
aN(lp1657
g3
(g7
S'\xd0\xcf\r\xc9}YKK'
p1658
tp1659
Rp1660
ag3
(g7
S'\x9b\xd3SS\xe6>KK'
p1661
tp1662
Rp1663
ag3
(g7
S'\xdc\xb1]\xf5\x92;KK'
p1664
tp1665
Rp1666
ag3
(g7
S"\xae\x96'\xd5w5KK"
p1667
tp1668
Rp1669
ag3
(g7
S'\xf9&\xb8;e/KK'
p1670
tp1671
Rp1672
atp1673
sI54
((lp1674
F5.67786979675293
aF0.6889939308166504
aF10.364678859710693
aF6.313076019287109
aF0.6608138084411621
a(lp1675
g3
(g7
S'\xe7\xcd\x1f\x8b\x85I_@'
p1676
tp1677
Rp1678
ag3
(g7
S'Tfk\xf5y\xeb_@'
p1679
tp1680
Rp1681
ag3
(g7
S'Y\xe31e\xda)_@'
p1682
tp1683
Rp1684
ag3
(g7
S'S[\x87\x1dm`_@'
p1685
tp1686
Rp1687
ag3
(g7
S'\x0e\x0cKk]\xf3_@'
p1688
tp1689
Rp1690
aN(lp1691
g3
(g7
S'?\x1aL\r\x9d\x94\x9eK'
p1692
tp1693
Rp1694
ag3
(g7
S'{\x95\xa4m\xc8\x92\x9eK'
p1695
tp1696
Rp1697
ag3
(g7
S'"T\xa1\x7f\xddp\x9eK'
p1698
tp1699
Rp1700
ag3
(g7
S'\x9dH\xc1\x80Ij\x9eK'
p1701
tp1702
Rp1703
ag3
(g7
S'~\xe8\xb6y\x07j\x9eK'
p1704
tp1705
Rp1706
atp1707
sI55
((lp1708
F7.773162126541138
aF3.2096049785614014
aF20.822921991348267
aF2.319905996322632
aF4.339660167694092
a(lp1709
g3
(g7
S'\x99\x7ffR\xa3-`@'
p1710
tp1711
Rp1712
ag3
(g7
S'q\x7f=\xdc\x83@`@'
p1713
tp1714
Rp1715
ag3
(g7
S'\x07Kg\xc93\x05`@'
p1716
tp1717
Rp1718
ag3
(g7
S'P%\r\xbb8O`@'
p1719
tp1720
Rp1721
ag3
(g7
S'\x1e\xda\x83\xc6)6`@'
p1722
tp1723
Rp1724
aN(lp1725
g3
(g7
S'\xdd@\xdc\x96\xf6\x96\xfcK'
p1726
tp1727
Rp1728
ag3
(g7
S'\nk\xa4&\x98\x84\xfcK'
p1729
tp1730
Rp1731
ag3
(g7
S'\xd8\t\xac\x0c\xa5r\xfcK'
p1732
tp1733
Rp1734
ag3
(g7
S'=\x80\x0f\x1a\x11r\xfcK'
p1735
tp1736
Rp1737
ag3
(g7
S'=v\xd9\x9bKp\xfcK'
p1738
tp1739
Rp1740
atp1741
sI56
((lp1742
F4.868946075439453
aF2.4267539978027344
aF7.00590705871582
aF7.660120010375977
aF0.707348108291626
a(lp1743
g3
(g7
S'\xf4d\xd5\xd7\xd8\xb9`@'
p1744
tp1745
Rp1746
ag3
(g7
S'I\xc0S\x1a\xb8\xd4`@'
p1747
tp1748
Rp1749
ag3
(g7
S'\x03g\x86\x90-\xa3`@'
p1750
tp1751
Rp1752
ag3
(g7
S'm\x0f|A\xd5\xa9`@'
p1753
tp1754
Rp1755
ag3
(g7
S'\xe8(\xebV|\xd6`@'
p1756
tp1757
Rp1758
aN(lp1759
g3
(g7
S'\xde\xbfg=XsXL'
p1760
tp1761
Rp1762
ag3
(g7
S'E\xde\x96BHkXL'
p1763
tp1764
Rp1765
ag3
(g7
S'\x92\xce\x19I\xbbbXL'
p1766
tp1767
Rp1768
ag3
(g7
S' j \xf5\t^XL'
p1769
tp1770
Rp1771
ag3
(g7
S'\xd4\x96l\xbc\xe5]XL'
p1772
tp1773
Rp1774
atp1775
sI57
((lp1776
F2.7385740280151367
aF0.9129588603973389
aF5.371449947357178
aF0.6687300205230713
aF1.91017484664917
a(lp1777
g3
(g7
S'$\x8b\x034 \x0fa@'
p1778
tp1779
Rp1780
ag3
(g7
S"'5\x10j}6a@"
p1781
tp1782
Rp1783
ag3
(g7
S'\x88\x88\xf6\x95-\x01a@'
p1784
tp1785
Rp1786
ag3
(g7
S'\t\xf4d2\x16ca@'
p1787
tp1788
Rp1789
ag3
(g7
S'\x194\xaaU$5a@'
p1790
tp1791
Rp1792
aN(lp1793
g3
(g7
S'\xe3QP@\xf8\xf0\x89L'
p1794
tp1795
Rp1796
ag3
(g7
S'>\xfb\xbb\x0c\x92\xed\x89L'
p1797
tp1798
Rp1799
ag3
(g7
S'\x83G\x8f#\x7f\xd1\x89L'
p1800
tp1801
Rp1802
ag3
(g7
S'\xff\xe0\x91i\xf8\xcc\x89L'
p1803
tp1804
Rp1805
ag3
(g7
S'\xbbJ\xf4\x07\x96\xc8\x89L'
p1806
tp1807
Rp1808
atp1809
sI58
((lp1810
F0.7229068279266357
aF3.6916658878326416
aF8.422468900680542
aF7.346275091171265
aF0.544651985168457
a(lp1811
g3
(g7
S'\xf2}XX\x92\xb9a@'
p1812
tp1813
Rp1814
ag3
(g7
S'@\xbf\x08A\t\x89a@'
p1815
tp1816
Rp1817
ag3
(g7
S'\xe5\x83~\xddVla@'
p1818
tp1819
Rp1820
ag3
(g7
S'rP<\xaa\xf8{a@'
p1821
tp1822
Rp1823
ag3
(g7
S'5;\x95%\x94\xe5a@'
p1824
tp1825
Rp1826
aN(lp1827
g3
(g7
S'4-\xf2\xe9"E\xe5L'
p1828
tp1829
Rp1830
ag3
(g7
S'\x8b"\x16\xe598\xe5L'
p1831
tp1832
Rp1833
ag3
(g7
S';8\x7f\xf4\x06-\xe5L'
p1834
tp1835
Rp1836
ag3
(g7
S'\x9ex\xf3\xa2\xc4&\xe5L'
p1837
tp1838
Rp1839
ag3
(g7
S'7\x05\xcc\xfd\xa5%\xe5L'
p1840
tp1841
Rp1842
atp1843
sI59
((lp1844
F0.4638190269470215
aF0.27423882484436035
aF8.154175996780396
aF3.8497540950775146
aF0.46840906143188477
a(lp1845
g3
(g7
S'\x0cFJ\x11Skb@'
p1846
tp1847
Rp1848
ag3
(g7
S'\x9cw\x93\x1a\xed?b@'
p1849
tp1850
Rp1851
ag3
(g7
S'Es\xe0\xe0\x02\xdca@'
p1852
tp1853
Rp1854
ag3
(g7
S'(<UFv\x07b@'
p1855
tp1856
Rp1857
ag3
(g7
S'\x9b|=\x06\xbeBb@'
p1858
tp1859
Rp1860
aN(lp1861
g3
(g7
S'\xf0p\xeb[\xd1\x807M'
p1862
tp1863
Rp1864
ag3
(g7
S'\xf3\xa6\xe0r\x8e|7M'
p1865
tp1866
Rp1867
ag3
(g7
S'X\x00\xffe#<7M'
p1868
tp1869
Rp1870
ag3
(g7
S'\xe2\xa3BB\xc8+7M'
p1871
tp1872
Rp1873
ag3
(g7
S'\x1d\xb3\xaa\x8f\\+7M'
p1874
tp1875
Rp1876
atp1877
sI60
((lp1878
F7.763069152832031
aF10.724447011947632
aF7.303744077682495
aF1.972559928894043
aF2.962028980255127
a(lp1879
g3
(g7
S'>n\xba/\xb90b@'
p1880
tp1881
Rp1882
ag3
(g7
S'Q\xcc\x04\xedc)b@'
p1883
tp1884
Rp1885
ag3
(g7
S'\xc5Y+515b@'
p1886
tp1887
Rp1888
ag3
(g7
S'\x1b\x82g\xbd\xedbb@'
p1889
tp1890
Rp1891
ag3
(g7
S'\x89j`|(Tb@'
p1892
tp1893
Rp1894
aN(lp1895
g3
(g7
S'\x9bo\xd9\x8cu\x12qM'
p1896
tp1897
Rp1898
ag3
(g7
S'\xb6I)R\xcc\x07qM'
p1899
tp1900
Rp1901
ag3
(g7
S'\xea7\xc9\xc8:\x06qM'
p1902
tp1903
Rp1904
ag3
(g7
S'\xcaj\x08f&\x04qM'
p1905
tp1906
Rp1907
ag3
(g7
S'\xbfN:\x01U\x03qM'
p1908
tp1909
Rp1910
atp1911
sI61
((lp1912
F9.136975049972534
aF1.6276569366455078
aF10.549221992492676
aF14.483565092086792
aF1.7057461738586426
a(lp1913
g3
(g7
S'\xed\xb7\xaf\xecT\x94b@'
p1914
tp1915
Rp1916
ag3
(g7
S'\xc6C\xdcv\xbb\xcfb@'
p1917
tp1918
Rp1919
ag3
(g7
S'~\xf0\xf5+z\x97b@'
p1920
tp1921
Rp1922
ag3
(g7
S'r,\xb9\xafa\x83b@'
p1923
tp1924
Rp1925
ag3
(g7
S'\x8ed\xf2\xd6k\xd9b@'
p1926
tp1927
Rp1928
aN(lp1929
g3
(g7
S';\x1e\xe5\x9b\xa4n\xb7M'
p1930
tp1931
Rp1932
ag3
(g7
S'\xd5<R:\xdel\xb7M'
p1933
tp1934
Rp1935
ag3
(g7
S'\xab.\xea\xb6ES\xb7M'
p1936
tp1937
Rp1938
ag3
(g7
S'\xae\x7f\xb2\xcf\xebG\xb7M'
p1939
tp1940
Rp1941
ag3
(g7
S'b P\xe9?G\xb7M'
p1942
tp1943
Rp1944
atp1945
sI62
((lp1946
F8.828397989273071
aF2.300539016723633
aF2.81830096244812
aF3.692584991455078
aF4.147055149078369
a(lp1947
g3
(g7
S'\xbc5\xdb-\xc59c@'
p1948
tp1949
Rp1950
ag3
(g7
S'\xd3\xf8\xe5_\xedac@'
p1951
tp1952
Rp1953
ag3
(g7
S'\x997\xe3_\xe2Hc@'
p1954
tp1955
Rp1956
ag3
(g7
S'\x82{\x00\xbb\x0cUc@'
p1957
tp1958
Rp1959
ag3
(g7
S'):\xdf)9]c@'
p1960
tp1961
Rp1962
aN(lp1963
g3
(g7
S'\x1eC\x87\x82\x93\xce,N'
p1964
tp1965
Rp1966
ag3
(g7
S'\x12T)\x15\xe2\xb8,N'
p1967
tp1968
Rp1969
ag3
(g7
S'\x01^$\x8e\xa7\xaa,N'
p1970
tp1971
Rp1972
ag3
(g7
S'\xceZ\xc2\x87A\x9e,N'
p1973
tp1974
Rp1975
ag3
(g7
S'\x1e\xbc\x9b\x10s\x99,N'
p1976
tp1977
Rp1978
atp1979
sI63
((lp1980
F9.196652889251709
aF2.958024024963379
aF3.4075088500976562
aF15.825529098510742
aF11.110498905181885
a(lp1981
g3
(g7
S"\xf3\xc9\xb68'oc@"
p1982
tp1983
Rp1984
ag3
(g7
S'@\xc1\x97\xb2_\x93c@'
p1985
tp1986
Rp1987
ag3
(g7
S'\xc1\xf3X\x80%\x90c@'
p1988
tp1989
Rp1990
ag3
(g7
S'\xd5\x8d\xcf\xe2\xd9hc@'
p1991
tp1992
Rp1993
ag3
(g7
S'\xdfZ\xab2\xbdgc@'
p1994
tp1995
Rp1996
aN(lp1997
g3
(g7
S'\xf2\x9f\xc9\xd0\xee\xfbTN'
p1998
tp1999
Rp2000
ag3
(g7
S'\xba\xd5Y\x03\xde\xf1TN'
p2001
tp2002
Rp2003
ag3
(g7
S'\xe6w \x8c8\xe9TN'
p2004
tp2005
Rp2006
ag3
(g7
S'\x82\xb9\x88qs\xd3TN'
p2007
tp2008
Rp2009
ag3
(g7
S'\xc3g{\xbe\x1e\xc8TN'
p2010
tp2011
Rp2012
atp2013
sI64
((lp2014
F0.9522190093994141
aF21.460386991500854
aF4.76681113243103
aF8.548648118972778
aF2.4873998165130615
a(lp2015
g3
(g7
S'\xa1\xa5E\xd8g3d@'
p2016
tp2017
Rp2018
ag3
(g7
S'\x18\x82\xd1\xd4]\xd0c@'
p2019
tp2020
Rp2021
ag3
(g7
S'\xdb \xc5Cv\x03d@'
p2022
tp2023
Rp2024
ag3
(g7
S'\xe6\x94?\x93%\xecc@'
p2025
tp2026
Rp2027
ag3
(g7
S'\xea/\xd8\x05\xca\x12d@'
p2028
tp2029
Rp2030
aN(lp2031
g3
(g7
S'\xab\x87W\xcb7\xa6\xb1N'
p2032
tp2033
Rp2034
ag3
(g7
S'\xfb\x88\xb2=\x9d\x8f\xb1N'
p2035
tp2036
Rp2037
ag3
(g7
S'D\xe8\x18\x17o\x8c\xb1N'
p2038
tp2039
Rp2040
ag3
(g7
S'E#G\xff\xcc\x8a\xb1N'
p2041
tp2042
Rp2043
ag3
(g7
S'\xf8\xb5\xe3\xf8\xae\x89\xb1N'
p2044
tp2045
Rp2046
atp2047
sI65
((lp2048
F4.141802072525024
aF15.590947151184082
aF2.447715997695923
aF0.7291460037231445
aF6.243618965148926
a(lp2049
g3
(g7
S'\xda+\x16\xa8\xe8\xaad@'
p2050
tp2051
Rp2052
ag3
(g7
S'\\\x95\xf3h\x9eld@'
p2053
tp2054
Rp2055
ag3
(g7
S'\x0e\xb5wE\xc6\xb9d@'
p2056
tp2057
Rp2058
ag3
(g7
S'@\x8a\xa08\xe4\xcfd@'
p2059
tp2060
Rp2061
ag3
(g7
S'\xab\xf4J\xb7\x8a\x92d@'
p2062
tp2063
Rp2064
aN(lp2065
g3
(g7
S'w\xcf\x90\x9d\x9fU\x16O'
p2066
tp2067
Rp2068
ag3
(g7
S'\x167\xc7W\x19+\x16O'
p2069
tp2070
Rp2071
ag3
(g7
S'(\x00q~T)\x16O'
p2072
tp2073
Rp2074
ag3
(g7
S'\xfc\x0bM\xa9E)\x16O'
p2075
tp2076
Rp2077
ag3
(g7
S'-\xd9\n\xc6\xd9$\x16O'
p2078
tp2079
Rp2080
atp2081
sI66
((lp2082
F9.944221019744873
aF18.693657875061035
aF7.116991996765137
aF4.262670993804932
aF25.871708154678345
a(lp2083
g3
(g7
S'N\xc0\x07\x18\x9f\xf0d@'
p2084
tp2085
Rp2086
ag3
(g7
S'\x1c^6\xe0\x80\xd6d@'
p2087
tp2088
Rp2089
ag3
(g7
S'\x94\x9f\x8b\x013\xfad@'
p2090
tp2091
Rp2092
ag3
(g7
S'X\xbe\x0c\xd6\x11\te@'
p2093
tp2094
Rp2095
ag3
(g7
S'\xea\x0c*z\x1c\xd5d@'
p2096
tp2097
Rp2098
aN(lp2099
g3
(g7
S'\x0e\x9ae\xfc,\xa1iO'
p2100
tp2101
Rp2102
ag3
(g7
S'K\x852\xe2%\x93iO'
p2103
tp2104
Rp2105
ag3
(g7
S'\x06\t=\xbc/\x92iO'
p2106
tp2107
Rp2108
ag3
(g7
S'\x8f\xa6%\rL\x90iO'
p2109
tp2110
Rp2111
ag3
(g7
S'\x02\xbdN7\xba\x8ciO'
p2112
tp2113
Rp2114
atp2115
sI67
((lp2116
F6.762211799621582
aF4.197036027908325
aF17.290587902069092
aF2.1854679584503174
aF8.448876857757568
a(lp2117
g3
(g7
S'\x9f\xeci\x13\xe2^e@'
p2118
tp2119
Rp2120
ag3
(g7
S'\xdd\r\x84x\xf5pe@'
p2121
tp2122
Rp2123
ag3
(g7
S'\xe7i\nz\xd0?e@'
p2124
tp2125
Rp2126
ag3
(g7
S'\xa8\xd7]g\xbe\x88e@'
p2127
tp2128
Rp2129
ag3
(g7
S'\xb8\xf5?\xa9kXe@'
p2130
tp2131
Rp2132
aN(lp2133
g3
(g7
S'\xb8\xd6\x9c`\xac\xd7\xafO'
p2134
tp2135
Rp2136
ag3
(g7
S'\xd5I\xfc\xd4\x95\xcd\xafO'
p2137
tp2138
Rp2139
ag3
(g7
S"'\xed\xd1Mc\xbf\xafO"
p2140
tp2141
Rp2142
ag3
(g7
S'\x8cp\xab!\xa6\xbe\xafO'
p2143
tp2144
Rp2145
ag3
(g7
S'\xbd\xdf\xed\x92:\xba\xafO'
p2146
tp2147
Rp2148
atp2149
sI68
((lp2150
F7.486781120300293
aF15.77151894569397
aF25.381447076797485
aF0.8528578281402588
aF15.259718179702759
a(lp2151
g3
(g7
S'P\x96\x19\x88?\xdde@'
p2152
tp2153
Rp2154
ag3
(g7
S'\x92[Y\x9cF\xbbe@'
p2155
tp2156
Rp2157
ag3
(g7
S'\xbe\xd9\x92n\x9e\xaee@'
p2158
tp2159
Rp2160
ag3
(g7
S'0\xd8\xfc\xa5\xbd+f@'
p2161
tp2162
Rp2163
ag3
(g7
S'\x19X\xb4Ar\xc2e@'
p2164
tp2165
Rp2166
aN(lp2167
g3
(g7
S';\xc7\xab\x83\xfb\xd2\x08P'
p2168
tp2169
Rp2170
ag3
(g7
S'\x95\x7f\xbb\x87\xc5\xb2\x08P'
p2171
tp2172
Rp2173
ag3
(g7
S'\xe5\xbb\xdf\xae\x05\xa4\x08P'
p2174
tp2175
Rp2176
ag3
(g7
S'\xcc5\xe3T\xe0\xa3\x08P'
p2177
tp2178
Rp2179
ag3
(g7
S'\x98\x17PP"\xa1\x08P'
p2180
tp2181
Rp2182
atp2183
sI69
((lp2184
F2.3129069805145264
aF1.4733359813690186
aF2.2986061573028564
aF5.00615382194519
aF1.1519460678100586
a(lp2185
g3
(g7
S'^\xadl\xc8\xf2\xa1f@'
p2186
tp2187
Rp2188
ag3
(g7
S')\xa5-\xb7\x01wf@'
p2189
tp2190
Rp2191
ag3
(g7
S'\x03\xfdn\xf8A\x93f@'
p2192
tp2193
Rp2194
ag3
(g7
S'\xaf* \xa4#if@'
p2195
tp2196
Rp2197
ag3
(g7
S'\xd9e\xf9\x14P\x86f@'
p2198
tp2199
Rp2200
aN(lp2201
g3
(g7
S'Z#\x1a\xde[\xb4bP'
p2202
tp2203
Rp2204
ag3
(g7
S'j\xf4\xba\x84<\xaebP'
p2205
tp2206
Rp2207
ag3
(g7
S'euTG\x1f\xa8bP'
p2208
tp2209
Rp2210
ag3
(g7
S'\xc5\x12o`S\x9dbP'
p2211
tp2212
Rp2213
ag3
(g7
S'\xaf\xe4\x81W\x0c\x9abP'
p2214
tp2215
Rp2216
atp2217
sI70
((lp2218
F12.67104196548462
aF3.3931658267974854
aF1.8818950653076172
aF30.34996509552002
aF13.840301990509033
a(lp2219
g3
(g7
S'}\x00\xfd\xce\xc6\x94f@'
p2220
tp2221
Rp2222
ag3
(g7
S'\xe1l\xfb\xd7\x1a\xa7f@'
p2223
tp2224
Rp2225
ag3
(g7
S'\x1c\x99\xd3/\x14\xb6f@'
p2226
tp2227
Rp2228
ag3
(g7
S'\xaaKQ|{rf@'
p2229
tp2230
Rp2231
ag3
(g7
S'V,\x911\x06\x84f@'
p2232
tp2233
Rp2234
aN(lp2235
g3
(g7
S'\xe6f\x89fm\x08\x94P'
p2236
tp2237
Rp2238
ag3
(g7
S'}my\xa3%\x04\x94P'
p2239
tp2240
Rp2241
ag3
(g7
S'\x9b#\x93\t\x90\x02\x94P'
p2242
tp2243
Rp2244
ag3
(g7
S'\xad\xd8&Y\x9f\xf4\x93P'
p2245
tp2246
Rp2247
ag3
(g7
S'\xca\x8f\xc6\xab\x9f\xf3\x93P'
p2248
tp2249
Rp2250
atp2251
sI71
((lp2252
F32.939960956573486
aF1.559885025024414
aF6.788671016693115
aF8.16272497177124
aF18.73193883895874
a(lp2253
g3
(g7
S'\x80\xa9\x15a\xe3\xf2f@'
p2254
tp2255
Rp2256
ag3
(g7
S'\xef)\xbb\xfc\x9fyg@'
p2257
tp2258
Rp2259
ag3
(g7
S"l\x16\xe9\xec\xf3'g@"
p2260
tp2261
Rp2262
ag3
(g7
S'\xb3l\xe9\xff2&g@'
p2263
tp2264
Rp2265
ag3
(g7
S'\x17\xb9=rN\xfbf@'
p2266
tp2267
Rp2268
aN(lp2269
g3
(g7
S'\x16\xbf\x19\x17"\x90\xf3P'
p2270
tp2271
Rp2272
ag3
(g7
S'\x9fD\x90\xea\x86\x8d\xf3P'
p2273
tp2274
Rp2275
ag3
(g7
S'\xc9\t\x857\xd2\x87\xf3P'
p2276
tp2277
Rp2278
ag3
(g7
S'\xfb)!V\xa2\x84\xf3P'
p2279
tp2280
Rp2281
ag3
(g7
S'\xdc\xc1n}\xda|\xf3P'
p2282
tp2283
Rp2284
atp2285
sI72
((lp2286
F3.432793140411377
aF6.400662899017334
aF0.9661431312561035
aF36.60143494606018
aF14.158800840377808
a(lp2287
g3
(g7
S'f\xdfB\xc32\x85g@'
p2288
tp2289
Rp2290
ag3
(g7
S'_\x81\x8ac\xce|g@'
p2291
tp2292
Rp2293
ag3
(g7
S'\xac\x01\x03\xbe7\xd8g@'
p2294
tp2295
Rp2296
ag3
(g7
S"\xb7'\xae\xf5\xbfLg@"
p2297
tp2298
Rp2299
ag3
(g7
S'J_\xd1\xcb\xa1hg@'
p2300
tp2301
Rp2302
aN(lp2303
g3
(g7
S'u\xaes\xc6}\x815Q'
p2304
tp2305
Rp2306
ag3
(g7
S'r\xae\x89\x15Wy5Q'
p2307
tp2308
Rp2309
ag3
(g7
S'l\xd4\xee\xa9\xb3w5Q'
p2310
tp2311
Rp2312
ag3
(g7
S';\x99\x17\xb2\xfae5Q'
p2313
tp2314
Rp2315
ag3
(g7
S"'0\xc4\x11\x91c5Q"
p2316
tp2317
Rp2318
atp2319
sI73
((lp2320
F9.537079095840454
aF10.874650001525879
aF9.250110864639282
aF12.596907138824463
aF14.672198057174683
a(lp2321
g3
(g7
S';A\x8c\x90\xbc$h@'
p2322
tp2323
Rp2324
ag3
(g7
S'\xc6_\xf5\xf7t*h@'
p2325
tp2326
Rp2327
ag3
(g7
S'm\xaa\xd13\xd4"h@'
p2328
tp2329
Rp2330
ag3
(g7
S'\xbb0\xe0@\x97 h@'
p2331
tp2332
Rp2333
ag3
(g7
S'\xa0\x8dj\xb0\xc1 h@'
p2334
tp2335
Rp2336
aN(lp2337
g3
(g7
S'\x8bG\x1d\x00\x89\xf7\xb2Q'
p2338
tp2339
Rp2340
ag3
(g7
S'\t\xf7\x12\x93\xcb\xdf\xb2Q'
p2341
tp2342
Rp2343
ag3
(g7
S'5\x92}\x92\xb0\xcf\xb2Q'
p2344
tp2345
Rp2346
ag3
(g7
S'&\x875\xb0\x9a\xc1\xb2Q'
p2347
tp2348
Rp2349
ag3
(g7
S'SP\xe1\x1cE\xba\xb2Q'
p2350
tp2351
Rp2352
atp2353
sI74
((lp2354
F9.563124895095825
aF3.3378450870513916
aF49.963444232940674
aF21.003304958343506
aF10.938525915145874
a(lp2355
g3
(g7
S'\xec\xbeqz{vh@'
p2356
tp2357
Rp2358
ag3
(g7
S'V\x91J\xae\x90\x90h@'
p2359
tp2360
Rp2361
ag3
(g7
S'\xbb\xdd\xd8\x00\xb6@h@'
p2362
tp2363
Rp2364
ag3
(g7
S'\xf3\xbe\x96\x90\xf6Zh@'
p2365
tp2366
Rp2367
ag3
(g7
S'\xebG\xee\xd5\\th@'
p2368
tp2369
Rp2370
aN(lp2371
g3
(g7
S'\xa4ot\xbe\x89\xa0\xe8Q'
p2372
tp2373
Rp2374
ag3
(g7
S'\xa0\xd9\xfd\xf3\x19\x9a\xe8Q'
p2375
tp2376
Rp2377
ag3
(g7
S'/\xacyX\xab~\xe8Q'
p2378
tp2379
Rp2380
ag3
(g7
S'\xf9\x9dc\xc1\x92{\xe8Q'
p2381
tp2382
Rp2383
ag3
(g7
S'\x1fl\x8en8{\xe8Q'
p2384
tp2385
Rp2386
atp2387
sI75
((lp2388
F9.560561895370483
aF30.329445123672485
aF68.49095511436462
aF16.048460960388184
aF11.405309915542603
a(lp2389
g3
(g7
S'.\xb1\xcd]\xa1\xedh@'
p2390
tp2391
Rp2392
ag3
(g7
S'\x8e\x08\x99\x1c\x07\xd7h@'
p2393
tp2394
Rp2395
ag3
(g7
S'C\x17s\n]\xb6h@'
p2396
tp2397
Rp2398
ag3
(g7
S'\xb0\x0b9\xd0O\xdbh@'
p2399
tp2400
Rp2401
ag3
(g7
S'\xff\xd7f}\xe9\xeah@'
p2402
tp2403
Rp2404
aN(lp2405
g3
(g7
S'\x00L5\x8d\xae\x1cER'
p2406
tp2407
Rp2408
ag3
(g7
S'G\x836\xc5\x85\x0cER'
p2409
tp2410
Rp2411
ag3
(g7
S'||\xc3^\xac\x05ER'
p2412
tp2413
Rp2414
ag3
(g7
S"\x01H\xc1j'\x05ER"
p2415
tp2416
Rp2417
ag3
(g7
S'\xe2;\xa3\xb9\xbf\x04ER'
p2418
tp2419
Rp2420
atp2421
sI76
((lp2422
F9.691107034683228
aF6.651463031768799
aF37.291285037994385
aF38.905864000320435
aF15.418166160583496
a(lp2423
g3
(g7
S'\x04\x94l\x9f\xc8hi@'
p2424
tp2425
Rp2426
ag3
(g7
S'B\x94-\xdf#ui@'
p2427
tp2428
Rp2429
ag3
(g7
S'\xf2\xe3U\x11r6i@'
p2430
tp2431
Rp2432
ag3
(g7
S'\x19\x88\x92>\x13=i@'
p2433
tp2434
Rp2435
ag3
(g7
S'\x0b\xdb\xb7?\x8eTi@'
p2436
tp2437
Rp2438
aN(lp2439
g3
(g7
S'7ij\xcdj\x94\x96R'
p2440
tp2441
Rp2442
ag3
(g7
S'\xd8\x95\xda\xa8Q\x8a\x96R'
p2443
tp2444
Rp2445
ag3
(g7
S'\xfd\x10\xe7~\xb6|\x96R'
p2446
tp2447
Rp2448
ag3
(g7
S'.\xaf]\xc4qw\x96R'
p2449
tp2450
Rp2451
ag3
(g7
S'\xda\xf4\xd0\xf9\xeau\x96R'
p2452
tp2453
Rp2454
atp2455
sI77
((lp2456
F4.153393030166626
aF38.81138014793396
aF62.45080804824829
aF31.88270616531372
aF9.794936895370483
a(lp2457
g3
(g7
S':-\xdb3n\x12j@'
p2458
tp2459
Rp2460
ag3
(g7
S'\xdb\x90U\x87\xbb\xbai@'
p2461
tp2462
Rp2463
ag3
(g7
S'cMl\xb2\xf3\xaci@'
p2464
tp2465
Rp2466
ag3
(g7
S'2T\x92\xc4\xd5\xc4i@'
p2467
tp2468
Rp2469
ag3
(g7
S'\x8b\xe1(=+\xe7i@'
p2470
tp2471
Rp2472
aN(lp2473
g3
(g7
S'\x7f\xdb\x05\xbdd\xa2\xf3R'
p2474
tp2475
Rp2476
ag3
(g7
S'\xab,\xb2\xf4\x06\x85\xf3R'
p2477
tp2478
Rp2479
ag3
(g7
S'\xfd\xaf^E\x16x\xf3R'
p2480
tp2481
Rp2482
ag3
(g7
S'\xeb\xa5\xadY\xb9t\xf3R'
p2483
tp2484
Rp2485
ag3
(g7
S']3la\xe9s\xf3R'
p2486
tp2487
Rp2488
atp2489
sI78
((lp2490
F9.90736699104309
aF2.9432950019836426
aF1.905102014541626
aF18.834558963775635
aF45.103410959243774
a(lp2491
g3
(g7
S'a>,i\x1a;j@'
p2492
tp2493
Rp2494
ag3
(g7
S'\xd4V\xc2\x02&yj@'
p2495
tp2496
Rp2497
ag3
(g7
S'\x9c0\xcb3\xc5\x8cj@'
p2498
tp2499
Rp2500
ag3
(g7
S'\x9d\x85\x0f\x90\xc97j@'
p2501
tp2502
Rp2503
ag3
(g7
S'/\xe03}^\x15j@'
p2504
tp2505
Rp2506
aN(lp2507
g3
(g7
S'\xf29U\x91 \xbb9S'
p2508
tp2509
Rp2510
ag3
(g7
S'/U\x01\xb9j\xb79S'
p2511
tp2512
Rp2513
ag3
(g7
S'\x88C\xab\xe7\xaf\xb59S'
p2514
tp2515
Rp2516
ag3
(g7
S'Z"\xe3z\xa6\xa69S'
p2517
tp2518
Rp2519
ag3
(g7
S'N\xf3\x0es\x84\x9c9S'
p2520
tp2521
Rp2522
atp2523
sI79
((lp2524
F45.0250780582428
aF11.553569078445435
aF11.045119047164917
aF43.34419298171997
aF6.872676134109497
a(lp2525
g3
(g7
S'H\xc7\xaa\xcd\xba\xb0j@'
p2526
tp2527
Rp2528
ag3
(g7
S'y\xfb^t1\xdfj@'
p2529
tp2530
Rp2531
ag3
(g7
S'\x19y\x07h"\xdfj@'
p2532
tp2533
Rp2534
ag3
(g7
S'\xde\x90\x8a\xff\x1e\xb5j@'
p2535
tp2536
Rp2537
ag3
(g7
S'w\xfbIb\x0b\xebj@'
p2538
tp2539
Rp2540
aN(lp2541
g3
(g7
S'\x86\xaeaL(\x86\xa5S'
p2542
tp2543
Rp2544
ag3
(g7
S'\xfbT\x98\xcc\x07\x85\xa5S'
p2545
tp2546
Rp2547
ag3
(g7
S'>\x1f\xb3\x18d\x83\xa5S'
p2548
tp2549
Rp2550
ag3
(g7
S'\xa5\xbb\x00\n\xde\x81\xa5S'
p2551
tp2552
Rp2553
ag3
(g7
S'\xe0Oy\xf2\xa1\x81\xa5S'
p2554
tp2555
Rp2556
atp2557
sI80
((lp2558
F21.67241907119751
aF53.857571840286255
aF11.713252067565918
aF11.152966976165771
aF4.8624420166015625
a(lp2559
g3
(g7
S'\xdb\ngsTAk@'
p2560
tp2561
Rp2562
ag3
(g7
S'\x97\xc1\xf6?\xd6\x1bk@'
p2563
tp2564
Rp2565
ag3
(g7
S'a\xab\x8ci\x1eXk@'
p2566
tp2567
Rp2568
ag3
(g7
S'~\xd8Sx\x1aYk@'
p2569
tp2570
Rp2571
ag3
(g7
S'\xa5`\xbd\xf2Gjk@'
p2572
tp2573
Rp2574
aN(lp2575
g3
(g7
S'\xda\xacNc\x90\xb9\xf6S'
p2576
tp2577
Rp2578
ag3
(g7
S'1\xd4X\xf0\x8a\xaa\xf6S'
p2579
tp2580
Rp2581
ag3
(g7
S'o<c\x04W\xa9\xf6S'
p2582
tp2583
Rp2584
ag3
(g7
S'\xca\x13;\xc2\xcd\xa8\xf6S'
p2585
tp2586
Rp2587
ag3
(g7
S'\x1a\xc7\x1f\xf9\xba\xa8\xf6S'
p2588
tp2589
Rp2590
atp2591
sI81
((lp2592
F2.7148032188415527
aF5.865620136260986
aF21.57707381248474
aF37.76120901107788
aF8.965353965759277
a(lp2593
g3
(g7
S'x\x0crU\x94\xd7k@'
p2594
tp2595
Rp2596
ag3
(g7
S'\xb4\xbf\xb9\x03\x98\xaek@'
p2597
tp2598
Rp2599
ag3
(g7
S'\xcd\x0f&\x8d\xd9\x8ck@'
p2600
tp2601
Rp2602
ag3
(g7
S"'\xa9\xa4\x90\xe7tk@"
p2603
tp2604
Rp2605
ag3
(g7
S'\x02\xbb\xe0;1\xb9k@'
p2606
tp2607
Rp2608
aN(lp2609
g3
(g7
S'sM\xdc\xb9\x19q.T'
p2610
tp2611
Rp2612
ag3
(g7
S'\xd2&\x9c\xa6\xaak.T'
p2613
tp2614
Rp2615
ag3
(g7
S'c~k\x0b\x8e_.T'
p2616
tp2617
Rp2618
ag3
(g7
S'\xd0\x07Uu\xa6R.T'
p2619
tp2620
Rp2621
ag3
(g7
S'\t\x96kM\xeeP.T'
p2622
tp2623
Rp2624
atp2625
sI82
((lp2626
F29.7275230884552
aF7.571546792984009
aF57.800020933151245
aF17.645546913146973
aF0.6853470802307129
a(lp2627
g3
(g7
S'\xe7\xb7&\x03\x16\x17l@'
p2628
tp2629
Rp2630
ag3
(g7
S'z_/O<2l@'
p2631
tp2632
Rp2633
ag3
(g7
S'\xf1\xcc\xb0\xe70\xfak@'
p2634
tp2635
Rp2636
ag3
(g7
S'\xa3\xc2\xee)\xdd+l@'
p2637
tp2638
Rp2639
ag3
(g7
S'/\x8c\x85\xb0T\x94l@'
p2640
tp2641
Rp2642
aN(lp2643
g3
(g7
S'\x06D\xb4z`\x1a\x99T'
p2644
tp2645
Rp2646
ag3
(g7
S'8n\xccc\x80\x16\x99T'
p2647
tp2648
Rp2649
ag3
(g7
S'\xcdq\x16t\xcc\x07\x99T'
p2650
tp2651
Rp2652
ag3
(g7
S'D\x13!\x0c\x94\x03\x99T'
p2653
tp2654
Rp2655
ag3
(g7
S'q\xe3\xc6\x13\x8f\x03\x99T'
p2656
tp2657
Rp2658
atp2659
sI83
((lp2660
F8.678360939025879
aF14.498455047607422
aF2.63924503326416
aF10.025761842727661
aF46.22990107536316
a(lp2661
g3
(g7
S'\xc5-\xc8iT\xc6l@'
p2662
tp2663
Rp2664
ag3
(g7
S'I\xb9\xc8x\x0b\xb2l@'
p2665
tp2666
Rp2667
ag3
(g7
S'\xc0\xd1\x17\xa0\xf1\xfcl@'
p2668
tp2669
Rp2670
ag3
(g7
S'\xd4\x15\x8a8\xe3\xb7l@'
p2671
tp2672
Rp2673
ag3
(g7
S'\xea\xb9T\x0bK\x91l@'
p2674
tp2675
Rp2676
aN(lp2677
g3
(g7
S'\x7f\xa6+gl&\xf8T'
p2678
tp2679
Rp2680
ag3
(g7
S'\xa6\x9e\xc7Y\xb2\x18\xf8T'
p2681
tp2682
Rp2683
ag3
(g7
S'\x91E\xc5\x0c\x92\x17\xf8T'
p2684
tp2685
Rp2686
ag3
(g7
S'\x86\x00%\xd4\xc4\x0f\xf8T'
p2687
tp2688
Rp2689
ag3
(g7
S'\xe4\xa1\xba\xf3J\x02\xf8T'
p2690
tp2691
Rp2692
atp2693
sI84
((lp2694
F2.9112210273742676
aF9.568527936935425
aF15.784446001052856
aF13.255160093307495
aF55.23067903518677
a(lp2695
g3
(g7
S'\xf7!\xa3\xaa\xa5?m@'
p2696
tp2697
Rp2698
ag3
(g7
S'\xc8\xdde\xea\xbb*m@'
p2699
tp2700
Rp2701
ag3
(g7
S'\x0b\xecFv\n\x11m@'
p2702
tp2703
Rp2704
ag3
(g7
S'B\xbe\x83U\xb5\x1cm@'
p2705
tp2706
Rp2707
ag3
(g7
S'\xcc\x81\x8c>Z\xe9l@'
p2708
tp2709
Rp2710
aN(lp2711
g3
(g7
S'\x18\x9c>\traCU'
p2712
tp2713
Rp2714
ag3
(g7
S';\xea\x0c\xf3\x9b[CU'
p2715
tp2716
Rp2717
ag3
(g7
S'B\x00:\x96\xaaRCU'
p2718
tp2719
Rp2720
ag3
(g7
S'\x1d\x86)\xe7\xabKCU'
p2721
tp2722
Rp2723
ag3
(g7
S'\xb9\xceRo\xc2DCU'
p2724
tp2725
Rp2726
atp2727
sI85
((lp2728
F4.862119197845459
aF34.86299681663513
aF31.25486922264099
aF26.52775502204895
aF23.304133892059326
a(lp2729
g3
(g7
S'\x92\xcd\xb8\x11X\xc5m@'
p2730
tp2731
Rp2732
ag3
(g7
S'oZ)7\xa1om@'
p2733
tp2734
Rp2735
ag3
(g7
S'\x97\xde\xa6\x97Fwm@'
p2736
tp2737
Rp2738
ag3
(g7
S'\xea\xbd\x1do\x93\x80m@'
p2739
tp2740
Rp2741
ag3
(g7
S'S\x08\xcb:\xc5\x87m@'
p2742
tp2743
Rp2744
aN(lp2745
g3
(g7
S'QtZ\x08\x8c\x9d\x9bU'
p2746
tp2747
Rp2748
ag3
(g7
S'\x0c\x97\x19\xb1\xba\x86\x9bU'
p2749
tp2750
Rp2751
ag3
(g7
S'\x92\xe8k>b|\x9bU'
p2752
tp2753
Rp2754
ag3
(g7
S'\x1f\t\xb9Vsy\x9bU'
p2755
tp2756
Rp2757
ag3
(g7
S'6\x87N\xfffw\x9bU'
p2758
tp2759
Rp2760
atp2761
sI86
((lp2762
F21.80820393562317
aF59.554733991622925
aF6.088747978210449
aF19.71242880821228
aF61.41727614402771
a(lp2763
g3
(g7
S'\xad\x1c?\xfe\xfa\xf5m@'
p2764
tp2765
Rp2766
ag3
(g7
S';\xaa\x0e\xdc\x83\xd5m@'
p2767
tp2768
Rp2769
ag3
(g7
S'\xda\xd3\xb4\xd6\xc9+n@'
p2770
tp2771
Rp2772
ag3
(g7
S'<\x80\x0b\xc9Z\xf6m@'
p2773
tp2774
Rp2775
ag3
(g7
S'^\xb5\xdb\x19M\xd3m@'
p2776
tp2777
Rp2778
aN(lp2779
g3
(g7
S'\x86\x05\xe1X)\xa2\xeaU'
p2780
tp2781
Rp2782
ag3
(g7
S'\x8dU\x82+\x95\x8e\xeaU'
p2783
tp2784
Rp2785
ag3
(g7
S'\r\x95\x1e\x10\x84\x8d\xeaU'
p2786
tp2787
Rp2788
ag3
(g7
S'm\xf2\x93d\xc1\x86\xeaU'
p2789
tp2790
Rp2791
ag3
(g7
S'\xdf\x8c\x0f}G\x85\xeaU'
p2792
tp2793
Rp2794
atp2795
sI87
((lp2796
F1.0913469791412354
aF4.613194942474365
aF74.24825596809387
aF29.00969409942627
aF21.722087860107422
a(lp2797
g3
(g7
S'\xf6\x00\xb9I%\x8do@'
p2798
tp2799
Rp2800
ag3
(g7
S'\xf4\xf6\xcf\xa6\xc0\xafn@'
p2801
tp2802
Rp2803
ag3
(g7
S'\x1c.\xf6\x89\xaeVn@'
p2804
tp2805
Rp2806
ag3
(g7
S'\xad|\xf8P1yn@'
p2807
tp2808
Rp2809
ag3
(g7
S'\x16\xfe\xf6C\xea|n@'
p2810
tp2811
Rp2812
aN(lp2813
g3
(g7
S'nb\x05\xaaX\x8fMV'
p2814
tp2815
Rp2816
ag3
(g7
S'\x8cd[\x16\xfe\x85MV'
p2817
tp2818
Rp2819
ag3
(g7
S'\xaf\xb6=\xb3\x0c7MV'
p2820
tp2821
Rp2822
ag3
(g7
S'\x8c\xd3\x91b\xd10MV'
p2823
tp2824
Rp2825
ag3
(g7
S'8x\xf6\xd8\xb4+MV'
p2826
tp2827
Rp2828
atp2829
sI88
((lp2830
F14.615541934967041
aF18.960649013519287
aF76.84920001029968
aF53.122897148132324
aF6.630584001541138
a(lp2831
g3
(g7
S',db\x93\xcb\no@'
p2832
tp2833
Rp2834
ag3
(g7
S'\xff\xed\xda\x93\x1c\x0eo@'
p2835
tp2836
Rp2837
ag3
(g7
S'\xc6w\xaeC6\xd9n@'
p2838
tp2839
Rp2840
ag3
(g7
S'9\xaf\xee8\x8d\xe2n@'
p2841
tp2842
Rp2843
ag3
(g7
S'\x11^\xb7k\x894o@'
p2844
tp2845
Rp2846
aN(lp2847
g3
(g7
S'\x0er%\xbe\x01\x95\xa9V'
p2848
tp2849
Rp2850
ag3
(g7
S'J!\x16\x98\xed\x8e\xa9V'
p2851
tp2852
Rp2853
ag3
(g7
S'J\x97?\xc7\xdd\x83\xa9V'
p2854
tp2855
Rp2856
ag3
(g7
S'\xf4Y\x0b\xbb\xbd\x81\xa9V'
p2857
tp2858
Rp2859
ag3
(g7
S'\xce\xd70\xf6\xae\x81\xa9V'
p2860
tp2861
Rp2862
atp2863
sI89
((lp2864
F43.06477403640747
aF2.5398671627044678
aF2.6146559715270996
aF10.111943006515503
aF7.445298910140991
a(lp2865
g3
(g7
S'\t\xfe\xc9\xe3\xef[o@'
p2866
tp2867
Rp2868
ag3
(g7
S'1(\x9eG\xe9\xc8o@'
p2869
tp2870
Rp2871
ag3
(g7
S'\x17\x11?\xbc\x1c\xc7o@'
p2872
tp2873
Rp2874
ag3
(g7
S'zZR\xecq\x8eo@'
p2875
tp2876
Rp2877
ag3
(g7
S'\x91\xd6\x13\xe0K\x92o@'
p2878
tp2879
Rp2880
aN(lp2881
g3
(g7
S'\x0c\x98\xeev\x13\xf2\xf7V'
p2882
tp2883
Rp2884
ag3
(g7
S'+A\x19\xae\r\xf2\xf7V'
p2885
tp2886
Rp2887
ag3
(g7
S'l&!\xce\\\xf1\xf7V'
p2888
tp2889
Rp2890
ag3
(g7
S'\x0f`^\xd1c\xee\xf7V'
p2891
tp2892
Rp2893
ag3
(g7
S'1\xce6\x95=\xe8\xf7V'
p2894
tp2895
Rp2896
atp2897
sI90
((lp2898
F43.26863408088684
aF34.59338092803955
aF30.452954053878784
aF69.03159284591675
aF36.98880100250244
a(lp2899
g3
(g7
S'o2\xc9\x8c\x1e\xeco@'
p2900
tp2901
Rp2902
ag3
(g7
S'\xda\x99\xa2\xd3l\xf2o@'
p2903
tp2904
Rp2905
ag3
(g7
S'V\xd4\x96\x0f_\xf2o@'
p2906
tp2907
Rp2908
ag3
(g7
S'\xcaV\xfa\xe2\xbc\xdbo@'
p2909
tp2910
Rp2911
ag3
(g7
S'\x0ea\xf7\x8c3\xefo@'
p2912
tp2913
Rp2914
aN(lp2915
g3
(g7
S'\x08\xe8\x82\x98\xb9\x9a^W'
p2916
tp2917
Rp2918
ag3
(g7
S'\x1al\xfe\xa0l\x8c^W'
p2919
tp2920
Rp2921
ag3
(g7
S'*\x82\xb6B{\x83^W'
p2922
tp2923
Rp2924
ag3
(g7
S'\xda\x14\xa6\x19}x^W'
p2925
tp2926
Rp2927
ag3
(g7
S'\xa4Jl83w^W'
p2928
tp2929
Rp2930
atp2931
sI91
((lp2932
F7.285292148590088
aF42.22734785079956
aF54.34080195426941
aF50.13776993751526
aF14.445970058441162
a(lp2933
g3
(g7
S'\x99%`I\x99Bp@'
p2934
tp2935
Rp2936
ag3
(g7
S'j\x88\x8f\x94\xd0\x1ap@'
p2937
tp2938
Rp2939
ag3
(g7
S'\xcec\xf6\xc8\xc9\x19p@'
p2940
tp2941
Rp2942
ag3
(g7
S'\x9eC\xff#h\x1bp@'
p2943
tp2944
Rp2945
ag3
(g7
S'H\x10\xb5TE2p@'
p2946
tp2947
Rp2948
aN(lp2949
g3
(g7
S'\xc0\xbf2\xce\xd1k\x9bW'
p2950
tp2951
Rp2952
ag3
(g7
S'\xb3<\xa0J\xfdK\x9bW'
p2953
tp2954
Rp2955
ag3
(g7
S'\xf6v\x83\x9dl5\x9bW'
p2956
tp2957
Rp2958
ag3
(g7
S'\xc1,\xaaO\x0c/\x9bW'
p2959
tp2960
Rp2961
ag3
(g7
S' \x19\xc0\xdd\x83-\x9bW'
p2962
tp2963
Rp2964
atp2965
sI92
((lp2966
F94.46740698814392
aF8.71412992477417
aF67.22905993461609
aF34.319576025009155
aF10.145427227020264
a(lp2967
g3
(g7
S'+\x19\xf1\x90\xb1lp@'
p2968
tp2969
Rp2970
ag3
(g7
S'\xd1\xce\xfa\x93 \x97p@'
p2971
tp2972
Rp2973
ag3
(g7
S'\xcc\x87B\xd3\x19sp@'
p2974
tp2975
Rp2976
ag3
(g7
S'\xb2\xef\x02\xabQ|p@'
p2977
tp2978
Rp2979
ag3
(g7
S'%\xc25\x84\xc1\x92p@'
p2980
tp2981
Rp2982
aN(lp2983
g3
(g7
S'Z\xd1\xde\x91\x88\xad\x1dX'
p2984
tp2985
Rp2986
ag3
(g7
S'\xd6\xae{\xe5i\xad\x1dX'
p2987
tp2988
Rp2989
ag3
(g7
S'o\xd9\xbf`\x11\xa0\x1dX'
p2990
tp2991
Rp2992
ag3
(g7
S'\xde\x935e\x92\x98\x1dX'
p2993
tp2994
Rp2995
ag3
(g7
S'\x94<ZNt\x98\x1dX'
p2996
tp2997
Rp2998
atp2999
sI93
((lp3000
F31.969692945480347
aF39.098273038864136
aF3.814326047897339
aF12.47045111656189
aF16.99529480934143
a(lp3001
g3
(g7
S'\n\xce\xc0\xf29\xadp@'
p3002
tp3003
Rp3004
ag3
(g7
S'\xd5\xdd\xd9\xc7?\xa6p@'
p3005
tp3006
Rp3007
ag3
(g7
S'\xbc\xaf\xfc\xdd\x89\xddp@'
p3008
tp3009
Rp3010
ag3
(g7
S's\x95\x005G\xbfp@'
p3011
tp3012
Rp3013
ag3
(g7
S'\xec\x02u\x94\xb2\xb7p@'
p3014
tp3015
Rp3016
aN(lp3017
g3
(g7
S'\xf1d|=q\x95]X'
p3018
tp3019
Rp3020
ag3
(g7
S'\xf12\x8d\t\x80\x8b]X'
p3021
tp3022
Rp3023
ag3
(g7
S'\xee)\xaeu@\x8b]X'
p3024
tp3025
Rp3026
ag3
(g7
S'\x86\xcf\x9a,\x18\x8a]X'
p3027
tp3028
Rp3029
ag3
(g7
S'6\xd4\xee^J\x87]X'
p3030
tp3031
Rp3032
atp3033
sI94
((lp3034
F32.71653699874878
aF3.1599559783935547
aF70.60215091705322
aF3.1393260955810547
aF10.61764907836914
a(lp3035
g3
(g7
S't\xfe\xe7Z\x80\xecp@'
p3036
tp3037
Rp3038
ag3
(g7
S't\x08\x9d\x0c\xd0\x08q@'
p3039
tp3040
Rp3041
ag3
(g7
S'\x7fR|\x19O\xe0p@'
p3042
tp3043
Rp3044
ag3
(g7
S'\xbf\x90\xd4dA\x19q@'
p3045
tp3046
Rp3047
ag3
(g7
S':\x948\xbb~\x01q@'
p3048
tp3049
Rp3050
aN(lp3051
g3
(g7
S'Cp\xaa\xe6r\xa7\xbcX'
p3052
tp3053
Rp3054
ag3
(g7
S'Y\xf7N9\x94\xa6\xbcX'
p3055
tp3056
Rp3057
ag3
(g7
S'\x91\xeb\xad\xb2\xa2\x9c\xbcX'
p3058
tp3059
Rp3060
ag3
(g7
S'\xed\xf8\xbf8u\x9c\xbcX'
p3061
tp3062
Rp3063
ag3
(g7
S'jO\xbd\xe7\xfb\x9b\xbcX'
p3064
tp3065
Rp3066
atp3067
sI95
((lp3068
F42.17553400993347
aF2.1113319396972656
aF32.44543194770813
aF26.946861028671265
aF6.4191529750823975
a(lp3069
g3
(g7
S'>\xc9\xbe>o)q@'
p3070
tp3071
Rp3072
ag3
(g7
S'w\xda\x9e\xea\xceOq@'
p3073
tp3074
Rp3075
ag3
(g7
S'm\x9d\xaf\xc5\x9d0q@'
p3076
tp3077
Rp3078
ag3
(g7
S'%\xdd\x1d\xfd\xd85q@'
p3079
tp3080
Rp3081
ag3
(g7
S'\xa77p\xb0\x08Fq@'
p3082
tp3083
Rp3084
aN(lp3085
g3
(g7
S'\xf5\xa5\xf7\xe29\x0b\x17Y'
p3086
tp3087
Rp3088
ag3
(g7
S'\x07\x89\xfd\x15\x87\n\x17Y'
p3089
tp3090
Rp3091
ag3
(g7
S'\xd0\x07\xac\xc48\x00\x17Y'
p3092
tp3093
Rp3094
ag3
(g7
S'\xc9\xfd\xc9\x1aS\xf7\x16Y'
p3095
tp3096
Rp3097
ag3
(g7
S'\xaf&\xa1-\xdc\xf6\x16Y'
p3098
tp3099
Rp3100
atp3101
sI96
((lp3102
F19.249226808547974
aF52.020355224609375
aF37.76652717590332
aF10.128622055053711
aF1.1360301971435547
a(lp3103
g3
(g7
S'*\xa3\xb7\xda\xea\x82q@'
p3104
tp3105
Rp3106
ag3
(g7
S'?\xa3ib\x93kq@'
p3107
tp3108
Rp3109
ag3
(g7
S'\x8f%Y.\x0csq@'
p3110
tp3111
Rp3112
ag3
(g7
S'\xf3\xacvN\x86\x89q@'
p3113
tp3114
Rp3115
ag3
(g7
S'\x8d\xe2)\xc74\xc0q@'
p3116
tp3117
Rp3118
aN(lp3119
g3
(g7
S'\xb6L\xea\xe6>L\x81Y'
p3120
tp3121
Rp3122
ag3
(g7
S'\x97\xbd\xad\xd0\xd5>\x81Y'
p3123
tp3124
Rp3125
ag3
(g7
S'#i\xd2\\w8\x81Y'
p3126
tp3127
Rp3128
ag3
(g7
S'u\x1e\x06\xba\x068\x81Y'
p3129
tp3130
Rp3131
ag3
(g7
S'\x0b\xe4\xd1\xe9\x048\x81Y'
p3132
tp3133
Rp3134
atp3135
sI97
((lp3136
F26.63835597038269
aF38.12164783477783
aF1.9789350032806396
aF34.565271854400635
aF9.27406096458435
a(lp3137
g3
(g7
S'\xf7+\xb4n\x93\xb9q@'
p3138
tp3139
Rp3140
ag3
(g7
S'\xa7\x9b\xe99G\xaaq@'
p3141
tp3142
Rp3143
ag3
(g7
S'\xd3\xbf\xac\x96!\xdfq@'
p3144
tp3145
Rp3146
ag3
(g7
S'/u9\x0f\x9a\xabq@'
p3147
tp3148
Rp3149
ag3
(g7
S'\xce\xbbs\xc2\xe9\xc6q@'
p3150
tp3151
Rp3152
aN(lp3153
g3
(g7
S'\xda\xc0e\x92Z\xac\xd0Y'
p3154
tp3155
Rp3156
ag3
(g7
S'>g\x1e\xd6\xfe\xa7\xd0Y'
p3157
tp3158
Rp3159
ag3
(g7
S'\xe0Q\\u\xc2\xa7\xd0Y'
p3160
tp3161
Rp3162
ag3
(g7
S'VRk\x07\x80\xa5\xd0Y'
p3163
tp3164
Rp3165
ag3
(g7
S']\xff\xc7\xa6n\xa4\xd0Y'
p3166
tp3167
Rp3168
atp3169
sI98
((lp3170
F2.4857089519500732
aF40.10332202911377
aF53.57798504829407
aF19.753358840942383
aF8.12045693397522
a(lp3171
g3
(g7
S'\xe8]\x1d\r\xe7#r@'
p3172
tp3173
Rp3174
ag3
(g7
S'\xaf\xfa\x95\x15\xd3\xefq@'
p3175
tp3176
Rp3177
ag3
(g7
S'?\xc9\x1d\x93x\xedq@'
p3178
tp3179
Rp3180
ag3
(g7
S'?H\xd9iJ\x00r@'
p3181
tp3182
Rp3183
ag3
(g7
S'\x013\x04\xc34\x03r@'
p3184
tp3185
Rp3186
aN(lp3187
g3
(g7
S'Hu\xae\x04\xb0\xa36Z'
p3188
tp3189
Rp3190
ag3
(g7
S'F\xcam=\xb9\x906Z'
p3191
tp3192
Rp3193
ag3
(g7
S'\xc9\xc4\x90\xd5\x07\x856Z'
p3194
tp3195
Rp3196
ag3
(g7
S'\xc2\xb6F\x0e\x81\x816Z'
p3197
tp3198
Rp3199
ag3
(g7
S'\x1b\x1d8\xdf\x9a~6Z'
p3200
tp3201
Rp3202
atp3203
sI99
((lp3204
F47.07901692390442
aF26.175387144088745
aF10.178558111190796
aF105.40724587440491
aF123.4110050201416
a(lp3205
g3
(g7
S'yD\xbe\xc1\x05\x0fr@'
p3206
tp3207
Rp3208
ag3
(g7
S'@\xe7\x0e\xec\xec\x1br@'
p3209
tp3210
Rp3211
ag3
(g7
S'\xdf\x90\xb5I\xa0*r@'
p3212
tp3213
Rp3214
ag3
(g7
S'GMv\xced\x03r@'
p3215
tp3216
Rp3217
ag3
(g7
S'\xbb\xae\xf9\xe8\x11\x01r@'
p3218
tp3219
Rp3220
aN(lp3221
g3
(g7
S'\x00\x08\x0e\x0b\xe2\xc0cZ'
p3222
tp3223
Rp3224
ag3
(g7
S'Q\xe1\xf1@N\xbdcZ'
p3225
tp3226
Rp3227
ag3
(g7
S'b\xe5&\xb1\xfc\xbccZ'
p3228
tp3229
Rp3230
ag3
(g7
S'\xff\x00\xf3\r\x12\xb7cZ'
p3231
tp3232
Rp3233
ag3
(g7
S'-,\xd8r\\\xb5cZ'
p3234
tp3235
Rp3236
atp3237
sI100
((lp3238
F50.84083414077759
aF204.53251695632935
aF37.89578914642334
aF14.804674863815308
aF9.397359132766724
a(lp3239
g3
(g7
S'\xbb\xdfV\xea\xf1[r@'
p3240
tp3241
Rp3242
ag3
(g7
S'\xae\x94\x90\x1a4Ar@'
p3243
tp3244
Rp3245
ag3
(g7
S'xD\xc0\xff\xeaWr@'
p3246
tp3247
Rp3248
ag3
(g7
S'?\x0cw\xb3\xdemr@'
p3249
tp3250
Rp3251
ag3
(g7
S'3\xaa\xe5\xc3\xbdxr@'
p3252
tp3253
Rp3254
aN(lp3255
g3
(g7
S"\x01\xd4O\x0c\xc8'\xcbZ"
p3256
tp3257
Rp3258
ag3
(g7
S'P\xdc\xf63\xf8\x1c\xcbZ'
p3259
tp3260
Rp3261
ag3
(g7
S'\xa6F\x9d\x14g\x1b\xcbZ'
p3262
tp3263
Rp3264
ag3
(g7
S'r\xb2\xcaOO\x1b\xcbZ'
p3265
tp3266
Rp3267
ag3
(g7
S'a$\xdc\xf3A\x1b\xcbZ'
p3268
tp3269
Rp3270
atp3271
sI101
((lp3272
F70.82241892814636
aF58.85984802246094
aF74.31506109237671
aF7.355146169662476
aF124.4133689403534
a(lp3273
g3
(g7
S'\xf7\xa4\xb1\xe0\xbe{r@'
p3274
tp3275
Rp3276
ag3
(g7
S'wm\xee[0\x80r@'
p3277
tp3278
Rp3279
ag3
(g7
S'\xbd\xec\x02\xbcU{r@'
p3280
tp3281
Rp3282
ag3
(g7
S'50\x1a`@\xa7r@'
p3283
tp3284
Rp3285
ag3
(g7
S'\xf6\\\x99\xe9\xf8vr@'
p3286
tp3287
Rp3288
aN(lp3289
g3
(g7
S'\\G>o\x9f-\x08['
p3290
tp3291
Rp3292
ag3
(g7
S"V#{C\x98'\x08["
p3293
tp3294
Rp3295
ag3
(g7
S'|9\x8f\x1ck$\x08['
p3296
tp3297
Rp3298
ag3
(g7
S'\xd4Kcoe$\x08['
p3299
tp3300
Rp3301
ag3
(g7
S't6&\xd8\x1f"\x08['
p3302
tp3303
Rp3304
atp3305
sI102
((lp3306
F55.325578927993774
aF259.466922044754
aF22.41243600845337
aF108.716383934021
aF1.4297468662261963
a(lp3307
g3
(g7
S'7 \xae\xe9T\xe1r@'
p3308
tp3309
Rp3310
ag3
(g7
S'\x93J\xde\xe3\n\xc8r@'
p3311
tp3312
Rp3313
ag3
(g7
S'\r\xc0\xa1\xe5a\xf5r@'
p3314
tp3315
Rp3316
ag3
(g7
S'\x17\x13\x8f\xdeg\xd5r@'
p3317
tp3318
Rp3319
ag3
(g7
S'\x91w\x83\x8f\xf8\x10s@'
p3320
tp3321
Rp3322
aN(lp3323
g3
(g7
S'\xcd\xb8x\x1cVB\x92['
p3324
tp3325
Rp3326
ag3
(g7
S'\x88\xf4S\xcb\x9a2\x92['
p3327
tp3328
Rp3329
ag3
(g7
S'\xc8\x84\xa8}12\x92['
p3330
tp3331
Rp3332
ag3
(g7
S'p2\x86a[1\x92['
p3333
tp3334
Rp3335
ag3
(g7
S"\x92'\x81\xedX1\x92["
p3336
tp3337
Rp3338
atp3339
sI103
((lp3340
F113.35367107391357
aF26.2087619304657
aF60.92493915557861
aF13.98330807685852
aF36.86435580253601
a(lp3341
g3
(g7
S'\xf3\xb2@\xca\xb4\rs@'
p3342
tp3343
Rp3344
ag3
(g7
S"\x11\x91\xe07\xb5's@"
p3345
tp3346
Rp3347
ag3
(g7
S'\x97m\x83$I\x1ds@'
p3348
tp3349
Rp3350
ag3
(g7
S'\x17U\x8c\x8a\xa05s@'
p3351
tp3352
Rp3353
ag3
(g7
S'\x96\xa3\xbd\xa6\xba!s@'
p3354
tp3355
Rp3356
aN(lp3357
g3
(g7
S'\xf8\xd8\xc9L\x0c\xf1\xe3['
p3358
tp3359
Rp3360
ag3
(g7
S'D\x1a\xa30d\xef\xe3['
p3361
tp3362
Rp3363
ag3
(g7
S'cP%\xe6\x92\xec\xe3['
p3364
tp3365
Rp3366
ag3
(g7
S'SI\xa9\xf4.\xec\xe3['
p3367
tp3368
Rp3369
ag3
(g7
S'\xf2y\x1eO\x86\xea\xe3['
p3370
tp3371
Rp3372
atp3373
sI104
((lp3374
F22.377586841583252
aF214.16562390327454
aF16.2747540473938
aF130.61292910575867
aF51.12682914733887
a(lp3375
g3
(g7
S'w\x18\xcfN\xa0Ws@'
p3376
tp3377
Rp3378
ag3
(g7
S'\x93\xc1:\x93Q3s@'
p3379
tp3380
Rp3381
ag3
(g7
S'\x88\xe0\xf8$;bs@'
p3382
tp3383
Rp3384
ag3
(g7
S'\x18\xb8t\xb3\xc6>s@'
p3385
tp3386
Rp3387
ag3
(g7
S'1\xbf\xca\x81OMs@'
p3388
tp3389
Rp3390
aN(lp3391
g3
(g7
S'\xde\xa9\xae.dq*\\'
p3392
tp3393
Rp3394
ag3
(g7
S'\xa5\xf1\xdb\x00\xebU*\\'
p3395
tp3396
Rp3397
ag3
(g7
S'b\x1d\xfaZ\xceU*\\'
p3398
tp3399
Rp3400
ag3
(g7
S'\xc5\xe3\xcf\xce\x89S*\\'
p3401
tp3402
Rp3403
ag3
(g7
S'\xb0tB\x0e\xf4R*\\'
p3404
tp3405
Rp3406
atp3407
sI105
((lp3408
F33.51191282272339
aF12.84286904335022
aF86.91407704353333
aF185.3260998725891
aF66.82180285453796
a(lp3409
g3
(g7
S'\x82\xde\xdb\xf8\xec\xa2s@'
p3410
tp3411
Rp3412
ag3
(g7
S'F\x19\xd0Ck\xb4s@'
p3413
tp3414
Rp3415
ag3
(g7
S'\x07\x18\xa3\x1c\xea\x98s@'
p3416
tp3417
Rp3418
ag3
(g7
S'I=\xbc\xc5\xa8\x8bs@'
p3419
tp3420
Rp3421
ag3
(g7
S'B\n\x9f\x99{\x9ds@'
p3422
tp3423
Rp3424
aN(lp3425
g3
(g7
S'\x92p\xe2;\xbdp\xa0\\'
p3426
tp3427
Rp3428
ag3
(g7
S'\x12\x13\xa8>\xa6n\xa0\\'
p3429
tp3430
Rp3431
ag3
(g7
S"Y\xf5f:'i\xa0\\"
p3432
tp3433
Rp3434
ag3
(g7
S'\xef\x17\xaa\x0e\x14e\xa0\\'
p3435
tp3436
Rp3437
ag3
(g7
S'\x02\xa4\xd1\xf9\x85d\xa0\\'
p3438
tp3439
Rp3440
atp3441
sI106
((lp3442
F76.8686740398407
aF85.21939492225647
aF18.133838176727295
aF23.0363450050354
aF91.70754814147949
a(lp3443
g3
(g7
S'o\x07\xda\xb82\xd9s@'
p3444
tp3445
Rp3446
ag3
(g7
S'\xdaQB\x03\xa2\xd8s@'
p3447
tp3448
Rp3449
ag3
(g7
S"\xe1U'\xfb\t\xf4s@"
p3450
tp3451
Rp3452
ag3
(g7
S'\xb6\xa1\x8b\xe6\xcb\xe9s@'
p3453
tp3454
Rp3455
ag3
(g7
S'2KrnY\xdds@'
p3456
tp3457
Rp3458
aN(lp3459
g3
(g7
S'\x12 \xedPD\t\xff\\'
p3460
tp3461
Rp3462
ag3
(g7
S'\xf5J\x00\xd3\xbf\xf5\xfe\\'
p3463
tp3464
Rp3465
ag3
(g7
S'\xc8\x07\xff\x93\x91\xf1\xfe\\'
p3466
tp3467
Rp3468
ag3
(g7
S'\xbc$\x99\xea\xbb\xf0\xfe\\'
p3469
tp3470
Rp3471
ag3
(g7
S'\x99Qg\x05\x8a\xeb\xfe\\'
p3472
tp3473
Rp3474
atp3475
sI107
((lp3476
F42.18802213668823
aF21.06283402442932
aF160.5300371646881
aF17.34657907485962
aF145.8843560218811
a(lp3477
g3
(g7
S"\x82\xcfkx\x10't@"
p3478
tp3479
Rp3480
ag3
(g7
S'V\x85\xb2\xc8C6t@'
p3481
tp3482
Rp3483
ag3
(g7
S'r\xc4\x86\x89\xa5\x11t@'
p3484
tp3485
Rp3486
ag3
(g7
S'\x91\x8b\xce\x8d\xe47t@'
p3487
tp3488
Rp3489
ag3
(g7
S'\x89$\x98\xbb\x18\x17t@'
p3490
tp3491
Rp3492
aN(lp3493
g3
(g7
S'\xf3\xc7Oi$\x97b]'
p3494
tp3495
Rp3496
ag3
(g7
S'\x1e\xce\xa9\xd0x\x94b]'
p3497
tp3498
Rp3499
ag3
(g7
S'\xfa\x8d\xf9a\xed\x8bb]'
p3500
tp3501
Rp3502
ag3
(g7
S'\x04f\xea>\xb0\x8bb]'
p3503
tp3504
Rp3505
ag3
(g7
S'\x9a\xb9`\xec\x07\x8ab]'
p3506
tp3507
Rp3508
atp3509
sI108
((lp3510
F72.03417086601257
aF34.122814893722534
aF42.29509115219116
aF10.973602056503296
aF9.117931127548218
a(lp3511
g3
(g7
S'\x04>\xa5SXXt@'
p3512
tp3513
Rp3514
ag3
(g7
S' Oh\xd9\xcdat@'
p3515
tp3516
Rp3517
ag3
(g7
S'\xb8b@$\x1e`t@'
p3518
tp3519
Rp3520
ag3
(g7
S'\xc4\xf59Vvqt@'
p3521
tp3522
Rp3523
ag3
(g7
S'\xff\x91Ielut@'
p3524
tp3525
Rp3526
aN(lp3527
g3
(g7
S'B\xb6@\xd6C\x96\xb0]'
p3528
tp3529
Rp3530
ag3
(g7
S'\x82\xab\x1c/\x0f\x92\xb0]'
p3531
tp3532
Rp3533
ag3
(g7
S'\x1e\xa3\xca\xf6\n\x90\xb0]'
p3534
tp3535
Rp3536
ag3
(g7
S'\x84\xfcz\xc7u\x8f\xb0]'
p3537
tp3538
Rp3539
ag3
(g7
S'\xf2\xaa\xeek\xc2\x8d\xb0]'
p3540
tp3541
Rp3542
atp3543
sI109
((lp3544
F6.407474994659424
aF128.56527400016785
aF89.2309799194336
aF20.449116945266724
aF34.921629905700684
a(lp3545
g3
(g7
S'\xa6P|\x9d\xfd\xc8t@'
p3546
tp3547
Rp3548
ag3
(g7
S'\xaf\x1f\xb2\xe4\xbb\x84t@'
p3549
tp3550
Rp3551
ag3
(g7
S'\xaa\x8a\xca\xdc_\x88t@'
p3552
tp3553
Rp3554
ag3
(g7
S'\xc8\n[\xd6>\xa8t@'
p3555
tp3556
Rp3557
ag3
(g7
S'za\x07\xae\xbb\x9ct@'
p3558
tp3559
Rp3560
aN(lp3561
g3
(g7
S'\x86Nx\x96\xac`\x00^'
p3562
tp3563
Rp3564
ag3
(g7
S'0\xd8\x05\xadVX\x00^'
p3565
tp3566
Rp3567
ag3
(g7
S'\xd6\xdc\xfaVTU\x00^'
p3568
tp3569
Rp3570
ag3
(g7
S'\x854KT\xb0T\x00^'
p3571
tp3572
Rp3573
ag3
(g7
S'\x0c\x9aU\xc0RT\x00^'
p3574
tp3575
Rp3576
atp3577
sI110
((lp3578
F135.20596313476562
aF20.27258610725403
aF68.39716410636902
aF129.86471009254456
aF5.23655891418457
a(lp3579
g3
(g7
S'\r\x8f\xf5\xf0\xb2\xcat@'
p3580
tp3581
Rp3582
ag3
(g7
S'\x13\xe3r\x9aN\xe4t@'
p3583
tp3584
Rp3585
ag3
(g7
S'%}\xc5\xe4R\xd2t@'
p3586
tp3587
Rp3588
ag3
(g7
S'!\xd3\xa3~\xc1\xc8t@'
p3589
tp3590
Rp3591
ag3
(g7
S'\xb6\x1f<\xf3\x87\x07u@'
p3592
tp3593
Rp3594
aN(lp3595
g3
(g7
S'/L\xce\x96\x84\xc8`^'
p3596
tp3597
Rp3598
ag3
(g7
S'\xa6\xd4\xdc\x1c\xfb\xc6`^'
p3599
tp3600
Rp3601
ag3
(g7
S'\xbf\x98(\xec\x0c\xc5`^'
p3602
tp3603
Rp3604
ag3
(g7
S',T,DN\xc3`^'
p3605
tp3606
Rp3607
ag3
(g7
S'\xcf;-\xa1=\xc3`^'
p3608
tp3609
Rp3610
atp3611
sI111
((lp3612
F15.4824059009552
aF32.92127013206482
aF22.274645805358887
aF6.417060136795044
aF45.980921030044556
a(lp3613
g3
(g7
S'\x05w\x1d$\xc1%u@'
p3614
tp3615
Rp3616
ag3
(g7
S'\xe5\x8e\xce\xaa\x08\x1bu@'
p3617
tp3618
Rp3619
ag3
(g7
S'zd~\xaf\xb1&u@'
p3620
tp3621
Rp3622
ag3
(g7
S'\xad\xa4\x9f\x84U=u@'
p3623
tp3624
Rp3625
ag3
(g7
S'\x87\xf4\xfd\xcer\x1cu@'
p3626
tp3627
Rp3628
aN(lp3629
g3
(g7
S'LM#p\xb0\xe7\xbf^'
p3630
tp3631
Rp3632
ag3
(g7
S'\xe5\xe0\x0b`\xd7\xdd\xbf^'
p3633
tp3634
Rp3635
ag3
(g7
S'Y\xc9`5\xb2\xda\xbf^'
p3636
tp3637
Rp3638
ag3
(g7
S'\xd8\x88QeV\xda\xbf^'
p3639
tp3640
Rp3641
ag3
(g7
S'\xa4\x1aR\xb2C\xd3\xbf^'
p3642
tp3643
Rp3644
atp3645
sI112
((lp3646
F57.55922508239746
aF35.17876100540161
aF9.017638921737671
aF8.972107172012329
aF247.53016686439514
a(lp3647
g3
(g7
S'\x83\xf4\x04\xd3\xc6Iu@'
p3648
tp3649
Rp3650
ag3
(g7
S'B\x8a;\x96\x88Xu@'
p3651
tp3652
Rp3653
ag3
(g7
S'\xb5\x85\xb1_jwu@'
p3654
tp3655
Rp3656
ag3
(g7
S'aN\xf3\xd5\x90fu@'
p3657
tp3658
Rp3659
ag3
(g7
S'B\x8b/\x85A6u@'
p3660
tp3661
Rp3662
aN(lp3663
g3
(g7
S'X\xbb)\xfe\xf2L\x0c_'
p3664
tp3665
Rp3666
ag3
(g7
S'\x88\xbc/n5I\x0c_'
p3667
tp3668
Rp3669
ag3
(g7
S'\r\x96~8\xd3G\x0c_'
p3670
tp3671
Rp3672
ag3
(g7
S'\xb1\xbc\x18\xfe\x9eF\x0c_'
p3673
tp3674
Rp3675
ag3
(g7
S'3\xff\x19\x90d=\x0c_'
p3676
tp3677
Rp3678
atp3679
sI113
((lp3680
F6.36850380897522
aF36.67462611198425
aF100.10172200202942
aF119.8038969039917
aF222.994530916214
a(lp3681
g3
(g7
S'\xab{\xb7f\x83\xcbu@'
p3682
tp3683
Rp3684
ag3
(g7
S'\r#O~-\xadu@'
p3685
tp3686
Rp3687
ag3
(g7
S'\xce\x870\x80]\x94u@'
p3688
tp3689
Rp3690
ag3
(g7
S'^2~H{\x96u@'
p3691
tp3692
Rp3693
ag3
(g7
S'# \xee\xab\x9e\x8au@'
p3694
tp3695
Rp3696
aN(lp3697
g3
(g7
S'\x1a\x7fn\xc2\xf4J\x86_'
p3698
tp3699
Rp3700
ag3
(g7
S'\x12\xd9N_\xbfC\x86_'
p3701
tp3702
Rp3703
ag3
(g7
S'\x89\xed\x8f\xfd\xa98\x86_'
p3704
tp3705
Rp3706
ag3
(g7
S'k\xd6\xbe0G4\x86_'
p3707
tp3708
Rp3709
ag3
(g7
S'\xc9&\xb2\x99\x8a1\x86_'
p3710
tp3711
Rp3712
atp3713
sI114
((lp3714
F131.08199381828308
aF89.12977004051208
aF175.12973308563232
aF31.41790509223938
aF26.88404107093811
a(lp3715
g3
(g7
S'\xd4\x85(m\x1e\xc2u@'
p3716
tp3717
Rp3718
ag3
(g7
S'\xecZD\x92\xf4\xc5u@'
p3719
tp3720
Rp3721
ag3
(g7
S'\x03\x91^t\xae\xbfu@'
p3722
tp3723
Rp3724
ag3
(g7
S'l\x8a\xa4*/\xdeu@'
p3725
tp3726
Rp3727
ag3
(g7
S'C\xbe\x08Q\xa2\xdcu@'
p3728
tp3729
Rp3730
aN(lp3731
g3
(g7
S'6rX\x94#\xf6\xc5_'
p3732
tp3733
Rp3734
ag3
(g7
S'\xb6\x9e\xb8\xec\xa4\xf2\xc5_'
p3735
tp3736
Rp3737
ag3
(g7
S'\xc1\x04~\xc0\xf3\xef\xc5_'
p3738
tp3739
Rp3740
ag3
(g7
S'\xf9\xe8\xa2<\xe7\xef\xc5_'
p3741
tp3742
Rp3743
ag3
(g7
S'\xd7\xe3\xb1s\x01\xef\xc5_'
p3744
tp3745
Rp3746
atp3747
sI115
((lp3748
F182.54236888885498
aF21.974336862564087
aF90.43178677558899
aF29.219969987869263
aF99.61970114707947
a(lp3749
g3
(g7
S'\xe5\x80XG\xef\x03v@'
p3750
tp3751
Rp3752
ag3
(g7
S'\xf67\xf1\x14\xac)v@'
p3753
tp3754
Rp3755
ag3
(g7
S'\x9f\xc6\xda\xff9\x10v@'
p3756
tp3757
Rp3758
ag3
(g7
S'\xe9\x1e\xaa\x97\x0f v@'
p3759
tp3760
Rp3761
ag3
(g7
S'I\xe9\xf3\xbe\xdb\x0cv@'
p3762
tp3763
Rp3764
aN(lp3765
g3
(g7
S'\xbd\xbe\xd8\x0c\x9a\xfd)`'
p3766
tp3767
Rp3768
ag3
(g7
S'%\xc2z;0\xfc)`'
p3769
tp3770
Rp3771
ag3
(g7
S'\xb4\xcc\xb53\xf1\xf6)`'
p3772
tp3773
Rp3774
ag3
(g7
S'\xc9\xd0\xd7\xb3\x9f\xf6)`'
p3775
tp3776
Rp3777
ag3
(g7
S'\xc9\x0e\xad\xe8\xe2\xf4)`'
p3778
tp3779
Rp3780
atp3781
sI116
((lp3782
F58.53471899032593
aF71.41611790657043
aF10.178733110427856
aF23.784130096435547
aF9.661662817001343
a(lp3783
g3
(g7
S'K\x92\xa4\xc5wWv@'
p3784
tp3785
Rp3786
ag3
(g7
S'\x90\x16\x80)HVv@'
p3787
tp3788
Rp3789
ag3
(g7
S'\x08\x93[\xd3\x9byv@'
p3790
tp3791
Rp3792
ag3
(g7
S'\xad\xd7p\xc0\x0cpv@'
p3793
tp3794
Rp3795
ag3
(g7
S'*\xf2\x80\xd5\xcb|v@'
p3796
tp3797
Rp3798
aN(lp3799
g3
(g7
S'\x16\x11\xf9\x0e\xb3T\x8c`'
p3800
tp3801
Rp3802
ag3
(g7
S'/4\x92\x81PN\x8c`'
p3803
tp3804
Rp3805
ag3
(g7
S'\xd6\xad\xb3F_M\x8c`'
p3806
tp3807
Rp3808
ag3
(g7
S'1\x8d\x1c\xe4\xf7K\x8c`'
p3809
tp3810
Rp3811
ag3
(g7
S'\xad>\x92\xbafK\x8c`'
p3812
tp3813
Rp3814
atp3815
sI117
((lp3816
F50.26001000404358
aF98.80831098556519
aF6.713178873062134
aF316.5008068084717
aF6.5315210819244385
a(lp3817
g3
(g7
S'\xf4\x9b\x01\x10[\xa0v@'
p3818
tp3819
Rp3820
ag3
(g7
S'k\x975\xbf\xe5\x97v@'
p3821
tp3822
Rp3823
ag3
(g7
S'\\\x1b\xd2\xd6\x8a\xcev@'
p3824
tp3825
Rp3826
ag3
(g7
S'\x9e\x03\x8f(y\x89v@'
p3827
tp3828
Rp3829
ag3
(g7
S'\x8b\x84A\xf3i\xbbv@'
p3830
tp3831
Rp3832
aN(lp3833
g3
(g7
S'Q\x02\xea\x87e\xe5\xf3`'
p3834
tp3835
Rp3836
ag3
(g7
S'\xd6\x86a\xb2w\xdf\xf3`'
p3837
tp3838
Rp3839
ag3
(g7
S'I[\xe1\xa6G\xdf\xf3`'
p3840
tp3841
Rp3842
ag3
(g7
S'\x89\x96 \xbf\xc0\xd6\xf3`'
p3843
tp3844
Rp3845
ag3
(g7
S'\xe8\xebn\xad\xb8\xd6\xf3`'
p3846
tp3847
Rp3848
atp3849
sI118
((lp3850
F42.888381004333496
aF82.18475317955017
aF71.78177785873413
aF78.91790008544922
aF6.476840019226074
a(lp3851
g3
(g7
S'\x86\x9dM\x8b\x1d\xe9v@'
p3852
tp3853
Rp3854
ag3
(g7
S'\x06\xadu\x97/\xe0v@'
p3855
tp3856
Rp3857
ag3
(g7
S'\xdf,ATp\xe0v@'
p3858
tp3859
Rp3860
ag3
(g7
S'Zu"\x08\x9e\xe0v@'
p3861
tp3862
Rp3863
ag3
(g7
S'W\xf9\xfe)\x05\x01w@'
p3864
tp3865
Rp3866
aN(lp3867
g3
(g7
S'UR{\xd7AiRa'
p3868
tp3869
Rp3870
ag3
(g7
S'\x06\xd5E\xe2E_Ra'
p3871
tp3872
Rp3873
ag3
(g7
S'U\xe0\xd4d\x81YRa'
p3874
tp3875
Rp3876
ag3
(g7
S'\x7f3\xe2\x87\xdaURa'
p3877
tp3878
Rp3879
ag3
(g7
S'o\ta\t\x9eURa'
p3880
tp3881
Rp3882
atp3883
sI119
((lp3884
F52.286195039749146
aF51.900611877441406
aF236.28473615646362
aF190.96693015098572
aF106.04302501678467
a(lp3885
g3
(g7
S'/\\\xc0\xe7\xe60w@'
p3886
tp3887
Rp3888
ag3
(g7
S'\xec%6\xa6\x9f3w@'
p3889
tp3890
Rp3891
ag3
(g7
S'\xe8/s[j\x16w@'
p3892
tp3893
Rp3894
ag3
(g7
S'\x84l\xc7\x8e\x14\x1dw@'
p3895
tp3896
Rp3897
ag3
(g7
S'\xfc\x82\xbf\xd3\x07&w@'
p3898
tp3899
Rp3900
aN(lp3901
g3
(g7
S'MX\x12,\xb3 \xbea'
p3902
tp3903
Rp3904
ag3
(g7
S'\xd0i\xeeV\xe8\x1a\xbea'
p3905
tp3906
Rp3907
ag3
(g7
S'\xa6\xe9\r{\x00\x0e\xbea'
p3908
tp3909
Rp3910
ag3
(g7
S"\xe7\x176\xaf'\x0b\xbea"
p3911
tp3912
Rp3913
ag3
(g7
S'e\xf7.\xado\n\xbea'
p3914
tp3915
Rp3916
atp3917
sI120
((lp3918
F70.7188971042633
aF44.15492606163025
aF93.83532810211182
aF467.1114070415497
aF305.1075780391693
a(lp3919
g3
(g7
S'\x8a\xb3\x1c\xaf+]w@'
p3920
tp3921
Rp3922
ag3
(g7
S'\x13\x9fR\xd6\xf3^w@'
p3923
tp3924
Rp3925
ag3
(g7
S'@>nH\xe0Xw@'
p3926
tp3927
Rp3928
ag3
(g7
S'\x90Y\xac\xb0\x9c=w@'
p3929
tp3930
Rp3931
ag3
(g7
S'\xae\xedS\xae\xf1Cw@'
p3932
tp3933
Rp3934
aN(lp3935
g3
(g7
S'\x02N\xc4`(:\x02b'
p3936
tp3937
Rp3938
ag3
(g7
S'\xc4\x0f\xb2\x01\xf78\x02b'
p3939
tp3940
Rp3941
ag3
(g7
S'\xae\xd4\xf0\xb6\x036\x02b'
p3942
tp3943
Rp3944
ag3
(g7
S'N\xb7\xf6\x1b\x981\x02b'
p3945
tp3946
Rp3947
ag3
(g7
S'\x03\x80\xb6\x90\xc40\x02b'
p3948
tp3949
Rp3950
atp3951
sI121
((lp3952
F295.7272460460663
aF251.5123701095581
aF2.469161033630371
aF25.83421492576599
aF24.992563009262085
a(lp3953
g3
(g7
S'w\xa3Z\xf2B\xa1w@'
p3954
tp3955
Rp3956
ag3
(g7
S'\x9cq\xc5,N\xa3w@'
p3957
tp3958
Rp3959
ag3
(g7
S'j\xa6\xe9}\x86\xebw@'
p3960
tp3961
Rp3962
ag3
(g7
S'\xa3\xb1\xc9\xcb\x0c\xc4w@'
p3963
tp3964
Rp3965
ag3
(g7
S'\xc9\x92!h\x10\xcdw@'
p3966
tp3967
Rp3968
aN(lp3969
g3
(g7
S'\x19\xb0\xc6\xf4v\xb5\x84b'
p3970
tp3971
Rp3972
ag3
(g7
S'P\x8c\x1d\x99\xa3\xb2\x84b'
p3973
tp3974
Rp3975
ag3
(g7
S's\x10\xac\xb8\xa2\xb2\x84b'
p3976
tp3977
Rp3978
ag3
(g7
S'\x8f\xf9\xb4X\x9c\xb2\x84b'
p3979
tp3980
Rp3981
ag3
(g7
S'\x981\x92\xffx\xb2\x84b'
p3982
tp3983
Rp3984
atp3985
sI122
((lp3986
F55.46331000328064
aF11.689626932144165
aF101.76008486747742
aF84.9933910369873
aF84.95230388641357
a(lp3987
g3
(g7
S's\xa1\xeeh\x07\xdfw@'
p3988
tp3989
Rp3990
ag3
(g7
S'\xb2\x0e\xabUl\xfaw@'
p3991
tp3992
Rp3993
ag3
(g7
S'\x830;\xda\xc6\xd3w@'
p3994
tp3995
Rp3996
ag3
(g7
S'[}\xa5wr\xd7w@'
p3997
tp3998
Rp3999
ag3
(g7
S'\x9e\xc3\xa7\x94\xe8\xcfw@'
p4000
tp4001
Rp4002
aN(lp4003
g3
(g7
S'\xb5G\x0eV\xde\x01\xb5b'
p4004
tp4005
Rp4006
ag3
(g7
S'\x95[2x\xed\x00\xb5b'
p4007
tp4008
Rp4009
ag3
(g7
S'T;\xf2K\x9d\xfa\xb4b'
p4010
tp4011
Rp4012
ag3
(g7
S'\xd7\x1e\xaf\xb8V\xf6\xb4b'
p4013
tp4014
Rp4015
ag3
(g7
S'@%\xd9\x88\xae\xf4\xb4b'
p4016
tp4017
Rp4018
atp4019
sI123
((lp4020
F94.259202003479
aF88.08395290374756
aF82.8234269618988
aF288.67499589920044
aF301.3184130191803
a(lp4021
g3
(g7
S'WF\xd8\x9f\xd3\x1ex@'
p4022
tp4023
Rp4024
ag3
(g7
S'\xa2OE\x9a\x90\x1cx@'
p4025
tp4026
Rp4027
ag3
(g7
S'\x1c*?3*\x1bx@'
p4028
tp4029
Rp4030
ag3
(g7
S'\xdeN\x1ef|\x08x@'
p4031
tp4032
Rp4033
ag3
(g7
S'z\xf5\xcf\xee\xef\x07x@'
p4034
tp4035
Rp4036
aN(lp4037
g3
(g7
S'G\xba\x12\xff\xf1N\x19c'
p4038
tp4039
Rp4040
ag3
(g7
S'P\xc5\x0f\xfarH\x19c'
p4041
tp4042
Rp4043
ag3
(g7
S'\xcb\xa5&\xe4\x03E\x19c'
p4044
tp4045
Rp4046
ag3
(g7
S'\xec\xb0\xdc\xce\xb3@\x19c'
p4047
tp4048
Rp4049
ag3
(g7
S'\xd6\xad\xcay\x84>\x19c'
p4050
tp4051
Rp4052
atp4053
sI124
((lp4054
F198.94285202026367
aF117.01331901550293
aF127.39144587516785
aF131.95052814483643
aF178.48354506492615
a(lp4055
g3
(g7
S'u\xf5\xff]\xacVx@'
p4056
tp4057
Rp4058
ag3
(g7
S'\x9f\x03\xfe\xa4sZx@'
p4059
tp4060
Rp4061
ag3
(g7
S'\xfd\xd3\xce\\f_x@'
p4062
tp4063
Rp4064
ag3
(g7
S'\xbc\x10oV\x1dZx@'
p4065
tp4066
Rp4067
ag3
(g7
S'@\xb4\xdeXhWx@'
p4068
tp4069
Rp4070
aN(lp4071
g3
(g7
S'>\xa6\x98\x80\xe8\xd7\x80c'
p4072
tp4073
Rp4074
ag3
(g7
S'\r%:\xa2]\xd4\x80c'
p4075
tp4076
Rp4077
ag3
(g7
S'-l\xb7\x1a\xeb\xd1\x80c'
p4078
tp4079
Rp4080
ag3
(g7
S"\xe8P\x03M'\xd1\x80c"
p4081
tp4082
Rp4083
ag3
(g7
S'U\xde\xb6\xec\xd8\xd0\x80c'
p4084
tp4085
Rp4086
atp4087
sI125
((lp4088
F86.95224094390869
aF39.21713304519653
aF10.385012865066528
aF129.95537686347961
aF24.260862112045288
a(lp4089
g3
(g7
S'\xa5]K\xa9\x92\xb8x@'
p4090
tp4091
Rp4092
ag3
(g7
S'0\xd17^7\xccx@'
p4093
tp4094
Rp4095
ag3
(g7
S'\xc2]\x8c\x06\x80\xdbx@'
p4096
tp4097
Rp4098
ag3
(g7
S'"\xf4\x1dn5\xb0x@'
p4099
tp4100
Rp4101
ag3
(g7
S'\xdan8\xaf\xc7\xc8x@'
p4102
tp4103
Rp4104
aN(lp4105
g3
(g7
S'\xcaN\xf4\xf5N\x13\xf9c'
p4106
tp4107
Rp4108
ag3
(g7
S'\xfb\xda[\xee?\x0f\xf9c'
p4109
tp4110
Rp4111
ag3
(g7
S'M\n\x83\xe6s\x0e\xf9c'
p4112
tp4113
Rp4114
ag3
(g7
S'\xf4{1&\xca\x08\xf9c'
p4115
tp4116
Rp4117
ag3
(g7
S'i\xbd\x98\x1d;\x08\xf9c'
p4118
tp4119
Rp4120
atp4121
sI126
((lp4122
F31.057103872299194
aF7.132227897644043
aF162.43494510650635
aF215.46491289138794
aF211.5709090232849
a(lp4123
g3
(g7
S"6@'||\x04y@"
p4124
tp4125
Rp4126
ag3
(g7
S'2\xa4\x06.\xb9+y@'
p4127
tp4128
Rp4129
ag3
(g7
S'\t\xa6t2\xab\xf0x@'
p4130
tp4131
Rp4132
ag3
(g7
S'\x14\xe6S\xeaj\xeax@'
p4133
tp4134
Rp4135
ag3
(g7
S'\xda\xab\xa3\xd7\xc1\xebx@'
p4136
tp4137
Rp4138
aN(lp4139
g3
(g7
S'\xbc=\xc4\x91\x13ZWd'
p4140
tp4141
Rp4142
ag3
(g7
S'\x1f\r\xac2\x0fYWd'
p4143
tp4144
Rp4145
ag3
(g7
S'\xa8\x8d"\x93\xf5QWd'
p4146
tp4147
Rp4148
ag3
(g7
S'\xa4\xf7\xf9\x99\xc8LWd'
p4149
tp4150
Rp4151
ag3
(g7
S'D\xe2\xcc\x10)IWd'
p4152
tp4153
Rp4154
atp4155
sI127
((lp4156
F345.24351382255554
aF17.25027108192444
aF35.303672790527344
aF7.983910799026489
aF125.68343806266785
a(lp4157
g3
(g7
S'\xa0s\xce\x18\xb3\x16y@'
p4158
tp4159
Rp4160
ag3
(g7
S'\xa2\xe48"\\Py@'
p4161
tp4162
Rp4163
ag3
(g7
S'\xe2/X\xf7\xec<y@'
p4164
tp4165
Rp4166
ag3
(g7
S'`%\xa0\xea!my@'
p4167
tp4168
Rp4169
ag3
(g7
S'x>\x0f e+y@'
p4170
tp4171
Rp4172
aN(lp4173
g3
(g7
S'o\xee\x9a\xa9\xa7 \xa3d'
p4174
tp4175
Rp4176
ag3
(g7
S'\x17\xa1>\xd4Q\x1d\xa3d'
p4177
tp4178
Rp4179
ag3
(g7
S'\xafD\xa3:/\x1d\xa3d'
p4180
tp4181
Rp4182
ag3
(g7
S'\x8bi\xdcq\xdb\x1c\xa3d'
p4183
tp4184
Rp4185
ag3
(g7
S'\x8a\xce\xfb\xa6\xf8\x16\xa3d'
p4186
tp4187
Rp4188
atp4189
sI128
((lp4190
F7.54974102973938
aF97.36973094940186
aF164.55243706703186
aF2.949025869369507
aF95.26127696037292
a(lp4191
g3
(g7
S'\x06{Q\xd3\xbe\x94y@'
p4192
tp4193
Rp4194
ag3
(g7
S'\x1f\xfa7\xa3.ny@'
p4195
tp4196
Rp4197
ag3
(g7
S'V\xde\x88\x87>ey@'
p4198
tp4199
Rp4200
ag3
(g7
S'\x92\xf6o\x1bc\xcdy@'
p4201
tp4202
Rp4203
ag3
(g7
S'.[\xf2\x9c\x12ny@'
p4204
tp4205
Rp4206
aN(lp4207
g3
(g7
S'\x08\xd59\xc5b\x13\x03e'
p4208
tp4209
Rp4210
ag3
(g7
S'B\xc6\x88\n\xef\x0b\x03e'
p4211
tp4212
Rp4213
ag3
(g7
S'\xce\xa4IY\xf2\x06\x03e'
p4214
tp4215
Rp4216
ag3
(g7
S' \xd7x\xe6\xf1\x06\x03e'
p4217
tp4218
Rp4219
ag3
(g7
S'\x03\xebD[\xc7\x04\x03e'
p4220
tp4221
Rp4222
atp4223
sI129
((lp4224
F139.29859805107117
aF193.66376185417175
aF400.57818603515625
aF14.771307945251465
aF16.755851984024048
a(lp4225
g3
(g7
S'\xee\x01\x05\xbf\x83\xady@'
p4226
tp4227
Rp4228
ag3
(g7
S'x\xaeC\xfdi\xa9y@'
p4229
tp4230
Rp4231
ag3
(g7
S' \x91~TN\x9ey@'
p4232
tp4233
Rp4234
ag3
(g7
S'\x0b\r\xba&\x16\xd5y@'
p4235
tp4236
Rp4237
ag3
(g7
S'\xb4}\xc46;\xcfy@'
p4238
tp4239
Rp4240
aN(lp4241
g3
(g7
S'\x8c\xb9R.\x08\x18he'
p4242
tp4243
Rp4244
ag3
(g7
S'l\xb9\x18\xeci\xfage'
p4245
tp4246
Rp4247
ag3
(g7
S'kM\x8e\xe5N\xeage'
p4248
tp4249
Rp4250
ag3
(g7
S'\xa7\x13\xbec\xb4\xe8ge'
p4251
tp4252
Rp4253
ag3
(g7
S'\t\xff\x8c\xc3\x93\xe8ge'
p4254
tp4255
Rp4256
atp4257
sI130
((lp4258
F104.85413479804993
aF151.06780219078064
aF125.97855806350708
aF141.49632000923157
aF358.55816292762756
a(lp4259
g3
(g7
S"N'K\xdf\xb5\xf6y@"
p4260
tp4261
Rp4262
ag3
(g7
S'\x10o\x02\xfe\x89\xf1y@'
p4263
tp4264
Rp4265
ag3
(g7
S'\x87j5L\x02\xf6y@'
p4266
tp4267
Rp4268
ag3
(g7
S'\xecC\xf6g\xc1\xf4y@'
p4269
tp4270
Rp4271
ag3
(g7
S':\xf50\x03\xac\xe4y@'
p4272
tp4273
Rp4274
aN(lp4275
g3
(g7
S'_\x98\xb4B\x00\xf6\xc9e'
p4276
tp4277
Rp4278
ag3
(g7
S'\xdd\xb9\xbcJ\xa7\xea\xc9e'
p4279
tp4280
Rp4281
ag3
(g7
S'\xef\xaa\xfe\xec\xf2\xe7\xc9e'
p4282
tp4283
Rp4284
ag3
(g7
S'\x1cFd\xd3\x7f\xe5\xc9e'
p4285
tp4286
Rp4287
ag3
(g7
S'\xc0\xe3\xddk1\xe2\xc9e'
p4288
tp4289
Rp4290
atp4291
sI131
((lp4292
F72.99694991111755
aF217.60167813301086
aF60.56365919113159
aF128.29845690727234
aF37.32301592826843
a(lp4293
g3
(g7
S'j\xe4\xd1{\x879z@'
p4294
tp4295
Rp4296
ag3
(g7
S'\xec\t\xbd\xc4\xab0z@'
p4297
tp4298
Rp4299
ag3
(g7
S'\xb5*r\xfe\x84<z@'
p4300
tp4301
Rp4302
ag3
(g7
S'?k\x92\xc9\xd71z@'
p4303
tp4304
Rp4305
ag3
(g7
S'\xf2Aq=\xabCz@'
p4306
tp4307
Rp4308
aN(lp4309
g3
(g7
S'=\xab+\xd6\x1b\xd3$f'
p4310
tp4311
Rp4312
ag3
(g7
S'o9\xd0[\xeb\xc9$f'
p4313
tp4314
Rp4315
ag3
(g7
S'\x01\x86\xe4\xd1\x9c\xc7$f'
p4316
tp4317
Rp4318
ag3
(g7
S'\xd6\xd8\xb9\xa9\xa0\xc5$f'
p4319
tp4320
Rp4321
ag3
(g7
S'\x94\x87\xdc\xb8\x03\xc5$f'
p4322
tp4323
Rp4324
atp4325
sI132
((lp4326
F42.87558197975159
aF432.9348771572113
aF497.40036702156067
aF43.61509394645691
aF231.65693306922913
a(lp4327
g3
(g7
S'HY-\xaaN\x90z@'
p4328
tp4329
Rp4330
ag3
(g7
S' \r+\xe0\xecqz@'
p4331
tp4332
Rp4333
ag3
(g7
S'!\xcd\xcb\x03=nz@'
p4334
tp4335
Rp4336
ag3
(g7
S'>(\x96\xfbL\x90z@'
p4337
tp4338
Rp4339
ag3
(g7
S'\xd8\xa5\x8a\x11Pxz@'
p4340
tp4341
Rp4342
aN(lp4343
g3
(g7
S'\xb4~b\x9c\xc7#\x96f'
p4344
tp4345
Rp4346
ag3
(g7
S'\x7f\xad\xd5\xa4\xf0\x19\x96f'
p4347
tp4348
Rp4349
ag3
(g7
S'\xe6\xcf=\xda&\x17\x96f'
p4350
tp4351
Rp4352
ag3
(g7
S'\x1a\xc2\xc8\x81 \x17\x96f'
p4353
tp4354
Rp4355
ag3
(g7
S'.?\xa0\x96\xcb\x16\x96f'
p4356
tp4357
Rp4358
atp4359
sI133
((lp4360
F89.04442095756531
aF82.13342094421387
aF14.282434940338135
aF131.89560508728027
aF281.07554388046265
a(lp4361
g3
(g7
S'\t)=\xb7X\xc8z@'
p4362
tp4363
Rp4364
ag3
(g7
S'\x99&\x13,`\xcdz@'
p4365
tp4366
Rp4367
ag3
(g7
S'x\xdc\x80\xc2\xc5\xe5z@'
p4368
tp4369
Rp4370
ag3
(g7
S'\x02R\x1c>n\xc6z@'
p4371
tp4372
Rp4373
ag3
(g7
S';\x0fs\xb0\xa6\xbaz@'
p4374
tp4375
Rp4376
aN(lp4377
g3
(g7
S'\xa9S\xc5Ae*\xf5f'
p4378
tp4379
Rp4380
ag3
(g7
S"{\xdf\xe5\xa5\x11'\xf5f"
p4381
tp4382
Rp4383
ag3
(g7
S'\x11\xfd\xa36\xc5&\xf5f'
p4384
tp4385
Rp4386
ag3
(g7
S'\xa51J\x90`#\xf5f'
p4387
tp4388
Rp4389
ag3
(g7
S'$\xce<jO \xf5f'
p4390
tp4391
Rp4392
atp4393
sI134
((lp4394
F464.90330505371094
aF653.1099181175232
aF10.246335983276367
aF80.7221839427948
aF274.1796040534973
a(lp4395
g3
(g7
S'\x82\x90\x1c=\x03\xe5z@'
p4396
tp4397
Rp4398
ag3
(g7
S'\xf9\xb4\x1b\xafx\xe0z@'
p4399
tp4400
Rp4401
ag3
(g7
S'\xac\x1bX\xe9\xe56{@'
p4402
tp4403
Rp4404
ag3
(g7
S'\ni\xbc\xc1\xc2\x01{@'
p4405
tp4406
Rp4407
ag3
(g7
S'k^\xc7\x08G\xeez@'
p4408
tp4409
Rp4410
aN(lp4411
g3
(g7
S'\xefx\xf4\xf6\x84\xc6@g'
p4412
tp4413
Rp4414
ag3
(g7
S'\xb4\x92\x1af\x90\xc3@g'
p4415
tp4416
Rp4417
ag3
(g7
S'\xcd\xb56\xb6\x8f\xc3@g'
p4418
tp4419
Rp4420
ag3
(g7
S'Dp\xc5\x12\x85\xc3@g'
p4421
tp4422
Rp4423
ag3
(g7
S'\xc6m\xc7\x19a\xc3@g'
p4424
tp4425
Rp4426
atp4427
sI135
((lp4428
F37.54190492630005
aF64.4727509021759
aF193.3672800064087
aF138.2974820137024
aF38.56888198852539
a(lp4429
g3
(g7
S'\xa7\n\xde\xfc.`{@'
p4430
tp4431
Rp4432
ag3
(g7
S'\x10\xc0hB\xd1Q{@'
p4433
tp4434
Rp4435
ag3
(g7
S'&&A\xec\xd6@{@'
p4436
tp4437
Rp4438
ag3
(g7
S'\xef\x82"\x99\x03B{@'
p4439
tp4440
Rp4441
ag3
(g7
S'\\i\xcc\x1e\xf3_{@'
p4442
tp4443
Rp4444
aN(lp4445
g3
(g7
S'\xca\xf3\xa0t$I\xacg'
p4446
tp4447
Rp4448
ag3
(g7
S'\xc3\xe7HH\xdcE\xacg'
p4449
tp4450
Rp4451
ag3
(g7
S't\xb4\x15\xfb\x1d>\xacg'
p4452
tp4453
Rp4454
ag3
(g7
S'=\xc0\xb2D\xb9:\xacg'
p4455
tp4456
Rp4457
ag3
(g7
S'\x0c\xfe\xad\x0b\x8c9\xacg'
p4458
tp4459
Rp4460
atp4461
sI136
((lp4462
F16.03728699684143
aF28.512093782424927
aF429.7283179759979
aF182.9776520729065
aF293.02215003967285
a(lp4463
g3
(g7
S'C>\x19%\xea\xc5{@'
p4464
tp4465
Rp4466
ag3
(g7
S'6\x1f\xe9\x0c\n\xa5{@'
p4467
tp4468
Rp4469
ag3
(g7
S'Oz\x04\xf4H\x83{@'
p4470
tp4471
Rp4472
ag3
(g7
S'\xea\xea\xd9\xfd:\x95{@'
p4473
tp4474
Rp4475
ag3
(g7
S'\xde\x11\xfa\x9e\xbc\x89{@'
p4476
tp4477
Rp4478
aN(lp4479
g3
(g7
S'K9\x91\xaa\xec\x07!h'
p4480
tp4481
Rp4482
ag3
(g7
S'\xddX\\?\xc0\x06!h'
p4483
tp4484
Rp4485
ag3
(g7
S'\x1b\x92\x1a\x01\xbe\xff h'
p4486
tp4487
Rp4488
ag3
(g7
S'\xb3\xc4\x8b\x94w\xfe h'
p4489
tp4490
Rp4491
ag3
(g7
S'\x8e\r*6B\xfd h'
p4492
tp4493
Rp4494
atp4495
sI137
((lp4496
F117.02066802978516
aF779.8861839771271
aF100.36173892021179
aF213.82709884643555
aF34.408531188964844
a(lp4497
g3
(g7
S'\xf3o\xb9\xe9l\xca{@'
p4498
tp4499
Rp4500
ag3
(g7
S'}z\x87+A\xac{@'
p4501
tp4502
Rp4503
ag3
(g7
S'\x9a73=\xe3\xcf{@'
p4504
tp4505
Rp4506
ag3
(g7
S'\x7f\x16\xd757\xc1{@'
p4507
tp4508
Rp4509
ag3
(g7
S'\x99N~5\x90\xd7{@'
p4510
tp4511
Rp4512
aN(lp4513
g3
(g7
S'\xdeD\xb6\x19\xde\xd2gh'
p4514
tp4515
Rp4516
ag3
(g7
S'\xa5\x9a=\x10\xff\xc6gh'
p4517
tp4518
Rp4519
ag3
(g7
S'\xa8&`0\xa0\xc6gh'
p4520
tp4521
Rp4522
ag3
(g7
S'\xd7\xce"\xb5\xf5\xc5gh'
p4523
tp4524
Rp4525
ag3
(g7
S'\x0b[\xdfg\xa9\xc5gh'
p4526
tp4527
Rp4528
atp4529
sI138
((lp4530
F1225.6661038398743
aF15.203773021697998
aF121.301589012146
aF749.952887058258
aF93.7067379951477
a(lp4531
g3
(g7
S'\xe1\x04\xae\xe6\x02\xf5{@'
p4532
tp4533
Rp4534
ag3
(g7
S'\x0b\x1fqP\xd3D|@'
p4535
tp4536
Rp4537
ag3
(g7
S';,\x97M\xce\x1b|@'
p4538
tp4539
Rp4540
ag3
(g7
S'\xda\xf0\x938\xa1\xfd{@'
p4541
tp4542
Rp4543
ag3
(g7
S'WQE*\xa4\x1b|@'
p4544
tp4545
Rp4546
aN(lp4547
g3
(g7
S'\xb1,L\xb0\xd2\x17\xdah'
p4548
tp4549
Rp4550
ag3
(g7
S'\xd9\xdb\xe7?\xc7\x17\xdah'
p4551
tp4552
Rp4553
ag3
(g7
S'\x12\x83\xe9\xbf\x80\x17\xdah'
p4554
tp4555
Rp4556
ag3
(g7
S'M\xce\x9bx-\x16\xdah'
p4557
tp4558
Rp4559
ag3
(g7
S'4O\x06+$\x16\xdah'
p4560
tp4561
Rp4562
atp4563
sI139
((lp4564
F58.676347970962524
aF81.86942100524902
aF8.041270017623901
aF99.81280994415283
aF73.23249006271362
a(lp4565
g3
(g7
S'\xcc\xfct&\x8dZ|@'
p4566
tp4567
Rp4568
ag3
(g7
S'\x12q\xa5ZA[|@'
p4569
tp4570
Rp4571
ag3
(g7
S'\x0fT\xfd\xe6\xa5y|@'
p4572
tp4573
Rp4574
ag3
(g7
S'\x95\xa2\x94\x9cX\\|@'
p4575
tp4576
Rp4577
ag3
(g7
S'\xd7#m\x81\xbe_|@'
p4578
tp4579
Rp4580
aN(lp4581
g3
(g7
S'd\x17<\xaf{[5i'
p4582
tp4583
Rp4584
ag3
(g7
S'\x9c\xf2\x84KtX5i'
p4585
tp4586
Rp4587
ag3
(g7
S'\xde\x94\xa0\xba\x01X5i'
p4588
tp4589
Rp4590
ag3
(g7
S'\x02/~2\xd2T5i'
p4591
tp4592
Rp4593
ag3
(g7
S'\xa3\xa8\xa7\xc2\x99S5i'
p4594
tp4595
Rp4596
atp4597
s.