(dp0
I5
((lp1
F0.00677800178527832
aF0.0015709400177001953
aF0.0018420219421386719
aF0.0018351078033447266
aF0.0023391246795654297
a(lp2
cnumpy.core.multiarray
scalar
p3
(cnumpy
dtype
p4
(S'f8'
p5
I0
I1
tp6
Rp7
(I3
S'<'
p8
NNNI-1
I-1
I0
tp9
bS'\xed\xf4\xf8b\xf6\xeb\xe2\xbf'
p10
tp11
Rp12
ag3
(g7
S'\x9c4\x01\x90\xe6V\x07@'
p13
tp14
Rp15
ag3
(g7
S'\x10k\xc1\xfe\xaf\xf0\xf8?'
p16
tp17
Rp18
ag3
(g7
S'\xbd\xc3a\xcd\xe6\x05\xe4?'
p19
tp20
Rp21
ag3
(g7
S'\x9f\xc8\xa3\x1d\xbb\xbe\xd3\xbf'
p22
tp23
Rp24
ag3
(g7
S'\xb2\x88\xa3z\xd9\x94\xdc?'
p25
tp26
Rp27
(lp28
g3
(g7
S'\xeff(4\xd1\xff\x00@'
p29
tp30
Rp31
ag3
(g7
S'\x80\xe8\xf2\x98\xda\xe1\x00@'
p32
tp33
Rp34
ag3
(g7
S'W\x83U$m\x80\x00@'
p35
tp36
Rp37
ag3
(g7
S'L\xb6\x86}\xd9H\xff?'
p38
tp39
Rp40
ag3
(g7
S'\xd7\xecd]x\x8f\xfe?'
p41
tp42
Rp43
atp44
sI6
((lp45
F0.0044748783111572266
aF0.0023338794708251953
aF0.0021109580993652344
aF0.002096891403198242
aF0.004374027252197266
a(lp46
g3
(g7
S'Zh\x9c\xdc\x110\x02@'
p47
tp48
Rp49
ag3
(g7
S'\xf0\xeew5O$\r@'
p50
tp51
Rp52
ag3
(g7
S'd\xae\x01"\xc3\xa5\x0c@'
p53
tp54
Rp55
ag3
(g7
S'\xc12\xc9\x1b\xa8\x8b\x08@'
p56
tp57
Rp58
ag3
(g7
S'\xff\xfeXdli\x08@'
p59
tp60
Rp61
ag3
(g7
S'i+\x9aE\n\x02\n@'
p62
tp63
Rp64
(lp65
g3
(g7
S'\x93\x164\xd0\x8a}E@'
p66
tp67
Rp68
ag3
(g7
S'\xfe\x8a\x9f\xa7\xae}D@'
p69
tp70
Rp71
ag3
(g7
S'\xee\xf6\xb5\xa8>?D@'
p72
tp73
Rp74
ag3
(g7
S'3\xf0\xcd\xb4\x07\xdeC@'
p75
tp76
Rp77
ag3
(g7
S'\xbc\xd3E\xe9\x07\xc6B@'
p78
tp79
Rp80
atp81
sI7
((lp82
F0.0037620067596435547
aF0.003025054931640625
aF0.0033528804779052734
aF0.0025110244750976562
aF0.005736827850341797
a(lp83
g3
(g7
S'@Y\xd1Qk\xfa\x07@'
p84
tp85
Rp86
ag3
(g7
S'\xfc\x9a\xc2\xc5\x87\xd1\x0c@'
p87
tp88
Rp89
ag3
(g7
S'Q\xdcJ\x06\x87\xe4\x07@'
p90
tp91
Rp92
ag3
(g7
S'\xce\xb5/\xdd\xc3\xa4 @'
p93
tp94
Rp95
ag3
(g7
S'\xcel|\x1eF\x14\t@'
p96
tp97
Rp98
ag3
(g7
S'\x9d\x1a\x96+r5\x0f@'
p99
tp100
Rp101
(lp102
g3
(g7
S'\xb3\x03l\xa1uZW@'
p103
tp104
Rp105
ag3
(g7
S'\xcef{S.xV@'
p106
tp107
Rp108
ag3
(g7
S"'z\xdc\x0be\x8cU@"
p109
tp110
Rp111
ag3
(g7
S'0m\xd7\xc2\xd9\x84U@'
p112
tp113
Rp114
ag3
(g7
S'\xbed\xe7\x02\xeeGU@'
p115
tp116
Rp117
atp118
sI8
((lp119
F0.004221916198730469
aF0.00695490837097168
aF0.003782987594604492
aF0.005463123321533203
aF0.0037851333618164062
a(lp120
g3
(g7
S'aI#\x94,a\x1d@'
p121
tp122
Rp123
ag3
(g7
S'\x17;\x17u\x97b\x13@'
p124
tp125
Rp126
ag3
(g7
S'1\x12x*A\x17\x15@'
p127
tp128
Rp129
ag3
(g7
S'\x13\xc8\xed\t5I\x14@'
p130
tp131
Rp132
ag3
(g7
S'}OA\x15\xd3\x0c"@'
p133
tp134
Rp135
ag3
(g7
S'\xa8E\x8c\xa0=\xfc\x14@'
p136
tp137
Rp138
(lp139
g3
(g7
S'\xccX\x8bt\xca\x88y@'
p140
tp141
Rp142
ag3
(g7
S'\xae]\x13\x8eVfx@'
p143
tp144
Rp145
ag3
(g7
S'\x94\xdc}7\xbc`w@'
p146
tp147
Rp148
ag3
(g7
S'\xf5!|q\x8b\x01w@'
p149
tp150
Rp151
ag3
(g7
S'W\xd2N\r\x1arv@'
p152
tp153
Rp154
atp155
sI9
((lp156
F0.010938882827758789
aF0.009162187576293945
aF0.004297971725463867
aF0.004791975021362305
aF0.004760026931762695
a(lp157
g3
(g7
S']\xe1e\xc2m\xe6\x15@'
p158
tp159
Rp160
ag3
(g7
S'\xbd\xba\x8e\x11A\xe4\x12@'
p161
tp162
Rp163
ag3
(g7
S'\xa3<\xe7\t..\x1f@'
p164
tp165
Rp166
ag3
(g7
S'\xce\xd7\xde\x90(,\x12@'
p167
tp168
Rp169
ag3
(g7
S'!H\x02%wz\x16@'
p170
tp171
Rp172
ag3
(g7
S'\x11\xe36\x06_F\x17@'
p173
tp174
Rp175
(lp176
g3
(g7
S'\xd5s\x80\xc8\\}\x8b@'
p177
tp178
Rp179
ag3
(g7
S' \xda\xcd\x98\x11\xc1\x88@'
p180
tp181
Rp182
ag3
(g7
S'n\x9a\x9c\xab\x82h\x88@'
p183
tp184
Rp185
ag3
(g7
S'\x05\xc8\xc5\xd7P;\x88@'
p186
tp187
Rp188
ag3
(g7
S'\xfc\xd6a\x82e\x19\x88@'
p189
tp190
Rp191
atp192
sI10
((lp193
F0.006132841110229492
aF0.005613088607788086
aF0.005587100982666016
aF0.006610870361328125
aF0.009629011154174805
a(lp194
g3
(g7
S'`\x97\x9b\xef?\x1b!@'
p195
tp196
Rp197
ag3
(g7
S'\xd0Y\x91\xca\x91O\x1b@'
p198
tp199
Rp200
ag3
(g7
S'Ei,u\xf8\xae\x1f@'
p201
tp202
Rp203
ag3
(g7
S'q6[\xbc\x1f\xe6\x1c@'
p204
tp205
Rp206
ag3
(g7
S'\xf4x\xa9/\xba\x8a\x1b@'
p207
tp208
Rp209
ag3
(g7
S'\xdb\xe9\x07\x88\xb4L\x1e@'
p210
tp211
Rp212
(lp213
g3
(g7
S'\xa4\x03\rfSR\xb6@'
p214
tp215
Rp216
ag3
(g7
S'#\xb1\x95\x96w\x15\xb6@'
p217
tp218
Rp219
ag3
(g7
S'\xd0@Ye\xa5V\xb5@'
p220
tp221
Rp222
ag3
(g7
S'\xaf\xcbl\xd0e\xd2\xb4@'
p223
tp224
Rp225
ag3
(g7
S'\x02)\x04\x87\xc3\x0f\xb4@'
p226
tp227
Rp228
atp229
sI11
((lp230
F0.008893013000488281
aF0.006304025650024414
aF0.00628209114074707
aF0.011413097381591797
aF0.0072879791259765625
a(lp231
g3
(g7
S'm\x8d\x02wS%!@'
p232
tp233
Rp234
ag3
(g7
S'\xe5\x83\x8e\x9c\xe67!@'
p235
tp236
Rp237
ag3
(g7
S'Z>\x1bo\x81\xa3 @'
p238
tp239
Rp240
ag3
(g7
S'b6\x83\x85\xe5\x0b\x1a@'
p241
tp242
Rp243
ag3
(g7
S'4U\x0c\xac`\xbf#@'
p244
tp245
Rp246
ag3
(g7
S'rYgz\x85\x18\x1e@'
p247
tp248
Rp249
(lp250
g3
(g7
S'(\xdaAzh\xf9\xae@'
p251
tp252
Rp253
ag3
(g7
S'>\xce&\xe2\xea\xed\xae@'
p254
tp255
Rp256
ag3
(g7
S'\xb1\xc6\t\x0bC\xd2\xae@'
p257
tp258
Rp259
ag3
(g7
S'[\x8d\xe0\xdb\x08\x00\xae@'
p260
tp261
Rp262
ag3
(g7
S'\xec_\xd3\x0b\x9a`\xad@'
p263
tp264
Rp265
atp266
sI12
((lp267
F0.018331050872802734
aF0.027988195419311523
aF0.010287046432495117
aF0.023376941680908203
aF0.006922006607055664
a(lp268
g3
(g7
S'\xf7\x8a\x01\x9e)$\x17@'
p269
tp270
Rp271
ag3
(g7
S't\xac\x8aI\x04\x18\x1a@'
p272
tp273
Rp274
ag3
(g7
S'\xbfQ\x87w\xc4g\x1b@'
p275
tp276
Rp277
ag3
(g7
S'\xc0\xa1z)c\xd8\x18@'
p278
tp279
Rp280
ag3
(g7
S'\x11;i\xce\xe9\xbd\x1f@'
p281
tp282
Rp283
ag3
(g7
S'\t\xfe\x95Nqw\x1b@'
p284
tp285
Rp286
(lp287
g3
(g7
S'\xacs\x88\x03\x02\xf2\xa6@'
p288
tp289
Rp290
ag3
(g7
S'\xcf\xc1t\xb9\xed\x05\xa5@'
p291
tp292
Rp293
ag3
(g7
S'f\xab0\xb6H\xe4\xa4@'
p294
tp295
Rp296
ag3
(g7
S'j\xdf\xe5\xfb6J\xa4@'
p297
tp298
Rp299
ag3
(g7
S'\xe8\xf1\x93\x156A\xa4@'
p300
tp301
Rp302
atp303
sI13
((lp304
F0.013736963272094727
aF0.011065006256103516
aF0.01329183578491211
aF0.021950960159301758
aF0.011192083358764648
a(lp305
g3
(g7
S'@\xf0\xda\xa6\xfa\x1e\x1d@'
p306
tp307
Rp308
ag3
(g7
S'\xbd\xfd\x8b4\xe1\xa8\x1e@'
p309
tp310
Rp311
ag3
(g7
S'.\xaf}@\x93\xcf\x1a@'
p312
tp313
Rp314
ag3
(g7
S'\x1b\xb8[\xdb \x17\x19@'
p315
tp316
Rp317
ag3
(g7
S'\x9d\xab\ny+i\x1d@'
p318
tp319
Rp320
ag3
(g7
S'\x10~\x01\x7fC\xc3\x1d@'
p321
tp322
Rp323
(lp324
g3
(g7
S'\xe2@L\x96\xad\x1f\xb3@'
p325
tp326
Rp327
ag3
(g7
S'\t\xf4\xb2@\xa1\xf2\xb1@'
p328
tp329
Rp330
ag3
(g7
S'\xdd[k\xfav\xa7\xb1@'
p331
tp332
Rp333
ag3
(g7
S':\xc2\xea\xde\x96~\xb1@'
p334
tp335
Rp336
ag3
(g7
S'\x7f\x90\xd7K\xdcY\xb1@'
p337
tp338
Rp339
atp340
sI14
((lp341
F0.04940390586853027
aF0.017157793045043945
aF0.010101795196533203
aF0.013782024383544922
aF0.054360151290893555
a(lp342
g3
(g7
S'*+k\xa1o\xa1\x17@'
p343
tp344
Rp345
ag3
(g7
S'\xfdZ\x95o^\xa7\x1a@'
p346
tp347
Rp348
ag3
(g7
S'\xfb\r/K\x81Y\x1e@'
p349
tp350
Rp351
ag3
(g7
S'\x1e\xb1\x88\xce\x8aW\x1b@'
p352
tp353
Rp354
ag3
(g7
S'x@7\xbc\x8c\xd1\x17@'
p355
tp356
Rp357
ag3
(g7
S'{\xe0}U\xfb\x02\x1d@'
p358
tp359
Rp360
(lp361
g3
(g7
S'\x18\xa7\xa6?|\xa9\xb4@'
p362
tp363
Rp364
ag3
(g7
S'&H\xf6;\xd4f\xb4@'
p365
tp366
Rp367
ag3
(g7
S'\x0b\xbf\xc3\xa9\x1bW\xb4@'
p368
tp369
Rp370
ag3
(g7
S'\xa2\x0c\xf0\x18|\xbc\xb3@'
p371
tp372
Rp373
ag3
(g7
S'|f9Xrq\xb2@'
p374
tp375
Rp376
atp377
sI15
((lp378
F0.013767004013061523
aF0.02007293701171875
aF0.02722907066345215
aF0.02686905860900879
aF0.030303001403808594
a(lp379
g3
(g7
S"+\xc0\x1fQ8E'@"
p380
tp381
Rp382
ag3
(g7
S'\x9f\x10R\x12\x7fP%@'
p383
tp384
Rp385
ag3
(g7
S'\xdb\x19\xeb\xfb\xfeo&@'
p386
tp387
Rp388
ag3
(g7
S'=\x12\x86\x94\x82\xa8$@'
p389
tp390
Rp391
ag3
(g7
S'F\x89ds\xa5l%@'
p392
tp393
Rp394
ag3
(g7
S'\x8d\xd9^\x0e\x1e\\&@'
p395
tp396
Rp397
(lp398
g3
(g7
S'w\xbf-.\xe6Z\x11A'
p399
tp400
Rp401
ag3
(g7
S'\x98\xa4\x90\x9b\xe3_\x10A'
p402
tp403
Rp404
ag3
(g7
S'\x16\x8d\xe2\xcd\x83l\x0eA'
p405
tp406
Rp407
ag3
(g7
S'\x98\xcf\xf1z\xad\x81\rA'
p408
tp409
Rp410
ag3
(g7
S'3e\xbf\xdag\xfb\x0cA'
p411
tp412
Rp413
atp414
sI16
((lp415
F0.029978036880493164
aF0.019999027252197266
aF0.01212000846862793
aF0.013703107833862305
aF0.013210058212280273
a(lp416
g3
(g7
S'\x05\xbdrrF#"@'
p417
tp418
Rp419
ag3
(g7
S'\xb3Y#\x85\x16\xb7"@'
p420
tp421
Rp422
ag3
(g7
S'\xf7\xbcQ\xb8\x8c+$@'
p423
tp424
Rp425
ag3
(g7
S'W8\xbb?n\xde$@'
p426
tp427
Rp428
ag3
(g7
S'U\xdf\xedO\x85\xdd#@'
p429
tp430
Rp431
ag3
(g7
S"\n\xe5'\x07\xa9\xc6!@"
p432
tp433
Rp434
(lp435
g3
(g7
S'\xa1\xaa\x15\xbb\x03\xac\xe7@'
p436
tp437
Rp438
ag3
(g7
S'\xda0\x91\x95\xebs\xe5@'
p439
tp440
Rp441
ag3
(g7
S'P\xf3\x19\x1a\xb9q\xe5@'
p442
tp443
Rp444
ag3
(g7
S'\x88,\x11!\xe2G\xe5@'
p445
tp446
Rp447
ag3
(g7
S'1\xb5;\x1e\x07$\xe5@'
p448
tp449
Rp450
atp451
sI17
((lp452
F0.028725147247314453
aF0.02196192741394043
aF0.015848875045776367
aF0.04780697822570801
aF0.014902830123901367
a(lp453
g3
(g7
S'\xb4d\x1f$8V)@'
p454
tp455
Rp456
ag3
(g7
S'\x8d\x10\tI\xb2\x80+@'
p457
tp458
Rp459
ag3
(g7
S'\xc2"\x9c\x06\xcf\x8e)@'
p460
tp461
Rp462
ag3
(g7
S'V\x8f8\x7f\xa7\x0b)@'
p463
tp464
Rp465
ag3
(g7
S'\xadoV-\xc5\x1c.@'
p466
tp467
Rp468
ag3
(g7
S'\x9e\xbc\xee\xf9\x97k)@'
p469
tp470
Rp471
(lp472
g3
(g7
S'\x15?g\x99\xe0\xfd9A'
p473
tp474
Rp475
ag3
(g7
S'\xb2\xe4\x10\x94\xd7\x189A'
p476
tp477
Rp478
ag3
(g7
S'-k\xf9I\x08\xf18A'
p479
tp480
Rp481
ag3
(g7
S'\xf6\xa1S$\xbe<7A'
p482
tp483
Rp484
ag3
(g7
S'T\xe6P\x900\x1f7A'
p485
tp486
Rp487
atp488
sI18
((lp489
F0.13704586029052734
aF0.09972715377807617
aF0.09094095230102539
aF0.015358209609985352
aF0.038839101791381836
a(lp490
g3
(g7
S'\xcd\xac@\xf7\x95\x8d%@'
p491
tp492
Rp493
ag3
(g7
S'!+\x84\x160\x90&@'
p494
tp495
Rp496
ag3
(g7
S"\xdc\xd5\x9e\xf9\x15\xb2'@"
p497
tp498
Rp499
ag3
(g7
S'\x0f\xc2\x8c\xd8\x94.,@'
p500
tp501
Rp502
ag3
(g7
S'\x8e\xb2\xbbr\xd2u&@'
p503
tp504
Rp505
ag3
(g7
S"\xbce\xd8\xf2N\xb2'@"
p506
tp507
Rp508
(lp509
g3
(g7
S'P1\xeex[\xe42A'
p510
tp511
Rp512
ag3
(g7
S'\x10*\x96P-\t2A'
p513
tp514
Rp515
ag3
(g7
S'\xa2b3I\xcf^1A'
p516
tp517
Rp518
ag3
(g7
S'r\xfd\xb3\xfd\x9c^1A'
p519
tp520
Rp521
ag3
(g7
S's\xe8\x7fv\xc6)1A'
p522
tp523
Rp524
atp525
sI19
((lp526
F0.04346203804016113
aF0.06339907646179199
aF0.02208995819091797
aF0.041139841079711914
aF0.10702300071716309
a(lp527
g3
(g7
S'\xf6\xe5\xfea\xc8P/@'
p528
tp529
Rp530
ag3
(g7
S'\xe94n\xac\x0bl,@'
p531
tp532
Rp533
ag3
(g7
S'\xc6a\x0c}`\xc31@'
p534
tp535
Rp536
ag3
(g7
S'i\xcf\xcf\xe1,\x8f-@'
p537
tp538
Rp539
ag3
(g7
S'\xdai\x9f\x82\xe7\x10,@'
p540
tp541
Rp542
ag3
(g7
S' /\xcc\xe9\x8a\x7f-@'
p543
tp544
Rp545
(lp546
g3
(g7
S'o[|6K\xe7rA'
p547
tp548
Rp549
ag3
(g7
S'^\xdbuS\xeb5qA'
p550
tp551
Rp552
ag3
(g7
S'\xf4\xc2?\x8bV\x13qA'
p553
tp554
Rp555
ag3
(g7
S'6\x19\xb3\xd8u\x08qA'
p556
tp557
Rp558
ag3
(g7
S'\xfe\x84\xe6\x85\xbdupA'
p559
tp560
Rp561
atp562
sI20
((lp563
F0.03172898292541504
aF0.12679791450500488
aF0.11921811103820801
aF0.022057056427001953
aF0.17308497428894043
a(lp564
g3
(g7
S'\xc22\xd71\xc1\x0b1@'
p565
tp566
Rp567
ag3
(g7
S'i"\xe3:\x19Z-@'
p568
tp569
Rp570
ag3
(g7
S'\xa5\xcex\x96\xd2V,@'
p571
tp572
Rp573
ag3
(g7
S'\x98\xee/\t%\xa6.@'
p574
tp575
Rp576
ag3
(g7
S'!<j\x9f\xe4@-@'
p577
tp578
Rp579
ag3
(g7
S'\x11W|7j\x0f/@'
p580
tp581
Rp582
(lp583
g3
(g7
S'Z\xd3\xaa\x91\x122\x85A'
p584
tp585
Rp586
ag3
(g7
S'VL\xc2l2\xa0\x82A'
p587
tp588
Rp589
ag3
(g7
S'&2X\x8a44\x82A'
p590
tp591
Rp592
ag3
(g7
S'<\xffe\x85]\x18\x82A'
p593
tp594
Rp595
ag3
(g7
S'\x9e-\xcd7\x9e\xb6\x81A'
p596
tp597
Rp598
atp599
sI21
((lp600
F0.11261200904846191
aF0.08839082717895508
aF0.023251056671142578
aF0.037966012954711914
aF0.24909210205078125
a(lp601
g3
(g7
S"\x0f'\xd4\xef\xb5\x86-@"
p602
tp603
Rp604
ag3
(g7
S'l\x91\xee\xbe\xda\xd4.@'
p605
tp606
Rp607
ag3
(g7
S'\xe7\xd8\xc5\xb2\xe2\x7f1@'
p608
tp609
Rp610
ag3
(g7
S'\x8bq\x99\xad\xd7\x9e0@'
p611
tp612
Rp613
ag3
(g7
S'\xe5%\xe3\xbfM\xd4+@'
p614
tp615
Rp616
ag3
(g7
S'&7\xd9B\x05\xc8.@'
p617
tp618
Rp619
(lp620
g3
(g7
S'\x17.;\xabM\x01\x85A'
p621
tp622
Rp623
ag3
(g7
S'-\x90\n7\xc1\xb3\x83A'
p624
tp625
Rp626
ag3
(g7
S'\x06\xa4O:\xe3\xa3\x83A'
p627
tp628
Rp629
ag3
(g7
S']\x90lh\xbd\x80\x83A'
p630
tp631
Rp632
ag3
(g7
S'O\xd9\xb2\x9d1\x80\x82A'
p633
tp634
Rp635
atp636
sI22
((lp637
F0.030061006546020508
aF0.2096540927886963
aF0.08108687400817871
aF0.048336029052734375
aF0.07416391372680664
a(lp638
g3
(g7
S'\xfbRR@o@2@'
p639
tp640
Rp641
ag3
(g7
S'FL\xe1\xf0\xf6\xc9.@'
p642
tp643
Rp644
ag3
(g7
S'\xe7S\x08.2\xad0@'
p645
tp646
Rp647
ag3
(g7
S'\x0b^\x7f7\x82j0@'
p648
tp649
Rp650
ag3
(g7
S'\xda\xeet\xfe\xc2\x010@'
p651
tp652
Rp653
ag3
(g7
S'|\x90v\xe7H\xee0@'
p654
tp655
Rp656
(lp657
g3
(g7
S'\xea\xaa\xaf\xa2\xb1\n\xa2A'
p658
tp659
Rp660
ag3
(g7
S'@\xb8\xa15\xac\x8f\x9fA'
p661
tp662
Rp663
ag3
(g7
S'\x97R\x1b\xf5\x9bI\x9fA'
p664
tp665
Rp666
ag3
(g7
S'S\xba\x0b\x0bv\xfd\x9eA'
p667
tp668
Rp669
ag3
(g7
S'\\\x0c6\xad\x99\xc2\x9eA'
p670
tp671
Rp672
atp673
sI23
((lp674
F0.042778968811035156
aF0.07441186904907227
aF0.29367494583129883
aF0.06793498992919922
aF0.09133410453796387
a(lp675
g3
(g7
S'/\xe2rz\xfb 0@'
p676
tp677
Rp678
ag3
(g7
S'\xee\xf5nr\xc1h/@'
p679
tp680
Rp681
ag3
(g7
S'\x99\xc3J\xcd3w+@'
p682
tp683
Rp684
ag3
(g7
S'^)q\xe6\x03w/@'
p685
tp686
Rp687
ag3
(g7
S'Y;n\xb6\x8c\xe0-@'
p688
tp689
Rp690
ag3
(g7
S'\x9d\xf7\xae\xa7\x13\x93.@'
p691
tp692
Rp693
(lp694
g3
(g7
S'\xb9|*c\x17\x15\x82A'
p695
tp696
Rp697
ag3
(g7
S'\x9c\x0f;\xfb\xb6\x9d\x81A'
p698
tp699
Rp700
ag3
(g7
S'\xae\x02{d\xd9\xbe}A'
p701
tp702
Rp703
ag3
(g7
S'\xdb|\x02\x8c\xc3\x8f}A'
p704
tp705
Rp706
ag3
(g7
S'\x81\xd62\xec\\S}A'
p707
tp708
Rp709
atp710
sI24
((lp711
F0.13373708724975586
aF0.18428993225097656
aF0.031691789627075195
aF0.08395791053771973
aF0.02925896644592285
a(lp712
g3
(g7
S'z\xfeI\xeaI\x141@'
p713
tp714
Rp715
ag3
(g7
S'\xc3\x19\x0b+\xca\xe60@'
p716
tp717
Rp718
ag3
(g7
S'\xa4\xae|x.\xb12@'
p719
tp720
Rp721
ag3
(g7
S'C\xdcc\xc9\x94\xda1@'
p722
tp723
Rp724
ag3
(g7
S'\xe6\xd7\xd2|\xc3\x0c7@'
p725
tp726
Rp727
ag3
(g7
S'\x7f4\xda\xed\xbe\xcf1@'
p728
tp729
Rp730
(lp731
g3
(g7
S'\xfdDx{\x1c\xf7\xbbA'
p732
tp733
Rp734
ag3
(g7
S'G/\xd2<,\xda\xb7A'
p735
tp736
Rp737
ag3
(g7
S'\x11\x1bJ@:\xd9\xb7A'
p738
tp739
Rp740
ag3
(g7
S'\x81\xca\xdc\xb7\xc6?\xb7A'
p741
tp742
Rp743
ag3
(g7
S'\x14\x8aB\xe5\xd49\xb7A'
p744
tp745
Rp746
atp747
sI25
((lp748
F0.04194903373718262
aF0.17020583152770996
aF0.051434993743896484
aF0.05821704864501953
aF0.1512761116027832
a(lp749
g3
(g7
S'\tp^5\xd8\xb80@'
p750
tp751
Rp752
ag3
(g7
S'5\xc0\xb7\n\xf4\xe4-@'
p753
tp754
Rp755
ag3
(g7
S'\xa0.\x17\x0c\xebu1@'
p756
tp757
Rp758
ag3
(g7
S'\xe8\x03\x08\xda\x15\x11.@'
p759
tp760
Rp761
ag3
(g7
S'U)m\x8cn[.@'
p762
tp763
Rp764
ag3
(g7
S'od\x19\x9f\xba\xdd-@'
p765
tp766
Rp767
(lp768
g3
(g7
S'g\xd3\xc6C\xfb\xe6\x8bA'
p769
tp770
Rp771
ag3
(g7
S'P\xdfW\xe9\xc2\xa3\x83A'
p772
tp773
Rp774
ag3
(g7
S'\xbe\x13\xf70*\x93\x83A'
p775
tp776
Rp777
ag3
(g7
S"qK\xcd\x85'%\x82A"
p778
tp779
Rp780
ag3
(g7
S'c\xc8\xc2\x9d$\xe5\x80A'
p781
tp782
Rp783
atp784
sI26
((lp785
F0.702955961227417
aF0.12963390350341797
aF0.14099597930908203
aF0.19542789459228516
aF0.13631296157836914
a(lp786
g3
(g7
S'\x06\xe5\xfde\x9ec/@'
p787
tp788
Rp789
ag3
(g7
S"3t\x9d\x85'\xc81@"
p790
tp791
Rp792
ag3
(g7
S'h\x11\xc76_x2@'
p793
tp794
Rp795
ag3
(g7
S'\tx\x058`\xf60@'
p796
tp797
Rp798
ag3
(g7
S'*J\x05\xf5\xd6/1@'
p799
tp800
Rp801
ag3
(g7
S'W\x91\x18\x9ak\xc90@'
p802
tp803
Rp804
(lp805
g3
(g7
S'\x16\xcf\xa8\x85_\xd7\xb5A'
p806
tp807
Rp808
ag3
(g7
S'[\xbe\xc0\xf7id\xb5A'
p809
tp810
Rp811
ag3
(g7
S'u\xaf\x06\xc7\x88\x1d\xb5A'
p812
tp813
Rp814
ag3
(g7
S' \xda0J\xc0\xba\xb4A'
p815
tp816
Rp817
ag3
(g7
S'N\xd3\xd4n<u\xb4A'
p818
tp819
Rp820
atp821
sI27
((lp822
F0.1445009708404541
aF0.8797309398651123
aF0.7493910789489746
aF0.3650798797607422
aF0.11623811721801758
a(lp823
g3
(g7
S'\x92L\xab\xa9\xfcV3@'
p824
tp825
Rp826
ag3
(g7
S'\x9f\xdf\xd0D\xa6\xb51@'
p827
tp828
Rp829
ag3
(g7
S'\xce{\x9a\xe4\x0b\x951@'
p830
tp831
Rp832
ag3
(g7
S'\x16\x19\x87\xfa\x8262@'
p833
tp834
Rp835
ag3
(g7
S"\x87\xfa'f\x1f\x854@"
p836
tp837
Rp838
ag3
(g7
S'\xfbeT\x8a\xcfC3@'
p839
tp840
Rp841
(lp842
g3
(g7
S'\x02\xdf\xbdp\x8d \xeeA'
p843
tp844
Rp845
ag3
(g7
S'\xd1\x1eE\xc1\x9et\xe7A'
p846
tp847
Rp848
ag3
(g7
S'\x8bYc\xd2qk\xe6A'
p849
tp850
Rp851
ag3
(g7
S'Y\xeaB\x90T\x08\xe6A'
p852
tp853
Rp854
ag3
(g7
S'~Z\x15d\xcd\xfc\xe5A'
p855
tp856
Rp857
atp858
sI28
((lp859
F1.55833101272583
aF0.19325804710388184
aF0.25168800354003906
aF0.14797520637512207
aF0.15973997116088867
a(lp860
g3
(g7
S'>t5@_j3@'
p861
tp862
Rp863
ag3
(g7
S'\xf5\xe52\xb5g\x8a5@'
p864
tp865
Rp866
ag3
(g7
S'm%o\x91\xbe\xfe4@'
p867
tp868
Rp869
ag3
(g7
S'\xfc\xfd\x0f\\\xf5\x1c6@'
p870
tp871
Rp872
ag3
(g7
S'3k\x8f\xd5\x91\x856@'
p873
tp874
Rp875
ag3
(g7
S'\xe7\xab\xfa9\x12`5@'
p876
tp877
Rp878
(lp879
g3
(g7
S'*V\x05Y\x92\x8e\x1dB'
p880
tp881
Rp882
ag3
(g7
S'Y\xbb \xb5\xccU\x1dB'
p883
tp884
Rp885
ag3
(g7
S'8\xf0\xb5d\xbc\x0e\x1dB'
p886
tp887
Rp888
ag3
(g7
S'r\xf0\x97=\x1c\xd8\x1cB'
p889
tp890
Rp891
ag3
(g7
S'\xaa(@\x01\x15\xc6\x1cB'
p892
tp893
Rp894
atp895
sI29
((lp896
F0.12054800987243652
aF0.5074260234832764
aF0.656851053237915
aF0.10133981704711914
aF0.7072319984436035
a(lp897
g3
(g7
S'=\x80x\xd7\xbfH8@'
p898
tp899
Rp900
ag3
(g7
S'\xb6Q\x80=K\xfb6@'
p901
tp902
Rp903
ag3
(g7
S'q\xf4\xb7\xd3\x1a\x9e6@'
p904
tp905
Rp906
ag3
(g7
S'\x04\xdf\x12\xaf\x8b\xb78@'
p907
tp908
Rp909
ag3
(g7
S'\xea\xf6\xdb\x02X\x8a6@'
p910
tp911
Rp912
ag3
(g7
S'\x04Q\x04F\xd3\xd07@'
p913
tp914
Rp915
(lp916
g3
(g7
S'N\x84\xdd\xa8\x8a\xd8TB'
p917
tp918
Rp919
ag3
(g7
S'\x19\xbf\xb15\xc2|RB'
p920
tp921
Rp922
ag3
(g7
S'\x9d}\x87\xbaw\x96QB'
p923
tp924
Rp925
ag3
(g7
S't`\xde\xa1g\x8cQB'
p926
tp927
Rp928
ag3
(g7
S'i6\x1a\x99\xc1\x19QB'
p929
tp930
Rp931
atp932
sI30
((lp933
F0.7445049285888672
aF0.09193611145019531
aF0.6349420547485352
aF0.2038249969482422
aF0.568976879119873
a(lp934
g3
(g7
S'\xe8\x1b\xe2>\x95\x9d7@'
p935
tp936
Rp937
ag3
(g7
S"\x1e\x13\xfe'\xfa\xec9@"
p938
tp939
Rp940
ag3
(g7
S'\x9379UT\x857@'
p941
tp942
Rp943
ag3
(g7
S'}\xcd\x13\x9bT\xef8@'
p944
tp945
Rp946
ag3
(g7
S'w\x1b\x07O\x17\xc27@'
p947
tp948
Rp949
ag3
(g7
S'-\x15#1\x80L8@'
p950
tp951
Rp952
(lp953
g3
(g7
S't\x12[\x14\xbd\xb5fB'
p954
tp955
Rp956
ag3
(g7
S'\x97a\x01EF\x90fB'
p957
tp958
Rp959
ag3
(g7
S't\xc6l: keB'
p960
tp961
Rp962
ag3
(g7
S'\xc49\xd7\x02\x85=eB'
p963
tp964
Rp965
ag3
(g7
S'A\xd5\xc8\x08\xe9\xb8dB'
p966
tp967
Rp968
atp969
sI31
((lp970
F0.634896993637085
aF0.5881869792938232
aF0.22882509231567383
aF0.0590510368347168
aF1.5525720119476318
a(lp971
g3
(g7
S'|\\\xdd\x1e\x0fQ7@'
p972
tp973
Rp974
ag3
(g7
S'Tg\x9f\xc4\xed\r7@'
p975
tp976
Rp977
ag3
(g7
S'D\x11b\x17\xfcO8@'
p978
tp979
Rp980
ag3
(g7
S'f\x0e\x0cc\x17\xce8@'
p981
tp982
Rp983
ag3
(g7
S'0\xf8\xcfyv+6@'
p984
tp985
Rp986
ag3
(g7
S'\xfd \xdd\x03\xfd\xd67@'
p987
tp988
Rp989
(lp990
g3
(g7
S'\xf7\xed\x12\xfd\xe3#YB'
p991
tp992
Rp993
ag3
(g7
S"\x1a\xcaQS\xc9'XB"
p994
tp995
Rp996
ag3
(g7
S'\x8c\xad\x85v\xb0\x04XB'
p997
tp998
Rp999
ag3
(g7
S'\xafB\x87\x90\x96\xebWB'
p1000
tp1001
Rp1002
ag3
(g7
S'\xe7\x19\x7f\x85\x9b\xa8VB'
p1003
tp1004
Rp1005
atp1006
sI32
((lp1007
F0.1308751106262207
aF1.7943298816680908
aF0.060855865478515625
aF0.6265499591827393
aF1.983591079711914
a(lp1008
g3
(g7
S'\x02]:\xdf\x06R9@'
p1009
tp1010
Rp1011
ag3
(g7
S'K1w\x19\xf8g6@'
p1012
tp1013
Rp1014
ag3
(g7
S'`\x88\x0c9\xa2\xb5:@'
p1015
tp1016
Rp1017
ag3
(g7
S'\xfb\xa7h\xb8\x86\xb07@'
p1018
tp1019
Rp1020
ag3
(g7
S'\x96\x88q=q\x806@'
p1021
tp1022
Rp1023
ag3
(g7
S'\x8c\xd8e\xe1T08@'
p1024
tp1025
Rp1026
(lp1027
g3
(g7
S'\x88\xa5A^|\xechB'
p1028
tp1029
Rp1030
ag3
(g7
S'j\xe8,2\xcf\x86dB'
p1031
tp1032
Rp1033
ag3
(g7
S'\xbcK\x12\xf8f\x85dB'
p1034
tp1035
Rp1036
ag3
(g7
S'y\xf3\x0eT\\\x05dB'
p1037
tp1038
Rp1039
ag3
(g7
S'#1\xd6\x8d\xafScB'
p1040
tp1041
Rp1042
atp1043
sI33
((lp1044
F0.893557071685791
aF0.15990710258483887
aF0.1690049171447754
aF2.300213098526001
aF0.7507100105285645
a(lp1045
g3
(g7
S'\xe2\xaa\x03\xaa\x01\xf27@'
p1046
tp1047
Rp1048
ag3
(g7
S'\xb1\xbd\xd2\xf0\xfa\xff8@'
p1049
tp1050
Rp1051
ag3
(g7
S'\\9\\\x98\xc8\xe4:@'
p1052
tp1053
Rp1054
ag3
(g7
S'\x18tQ\xb5A\xa26@'
p1055
tp1056
Rp1057
ag3
(g7
S'\xcb\xa7\xe5\xd0\x9aY7@'
p1058
tp1059
Rp1060
ag3
(g7
S'\xf7dW\xe2\xbfv8@'
p1061
tp1062
Rp1063
(lp1064
g3
(g7
S'\xe3\xb0s\xa9\x8c\nlB'
p1065
tp1066
Rp1067
ag3
(g7
S'_\x05\x1c1\xf0PkB'
p1068
tp1069
Rp1070
ag3
(g7
S'["\'X\x0c2kB'
p1071
tp1072
Rp1073
ag3
(g7
S'\x1e\xbd\xb5\xf3\x0f\x02iB'
p1074
tp1075
Rp1076
ag3
(g7
S'\x7f\x07\x14R9\x80hB'
p1077
tp1078
Rp1079
atp1080
sI34
((lp1081
F1.6700708866119385
aF0.23529481887817383
aF0.415816068649292
aF0.7339260578155518
aF0.10544395446777344
a(lp1082
g3
(g7
S'\xb8\x8a\x8b\xdc\x1a\xfc7@'
p1083
tp1084
Rp1085
ag3
(g7
S'\xa6\rm\x7f\xd2\xd69@'
p1086
tp1087
Rp1088
ag3
(g7
S'\xd1M\xd2\x98\x98\x029@'
p1089
tp1090
Rp1091
ag3
(g7
S'1\x1a\x9a*\xd7\x828@'
p1092
tp1093
Rp1094
ag3
(g7
S'\xdb\xf2e\x96"\xf7;@'
p1095
tp1096
Rp1097
ag3
(g7
S'|\x86\xf6\xeap,9@'
p1098
tp1099
Rp1100
(lp1101
g3
(g7
S'\x83oC\xa7\xef\x95zB'
p1102
tp1103
Rp1104
ag3
(g7
S'#\xe4-H\xbd6zB'
p1105
tp1106
Rp1107
ag3
(g7
S'8\x00\x0fs>\xfbyB'
p1108
tp1109
Rp1110
ag3
(g7
S'H.\x06\xc7{\x88yB'
p1111
tp1112
Rp1113
ag3
(g7
S'_x3!(\x81yB'
p1114
tp1115
Rp1116
atp1117
sI35
((lp1118
F0.8132071495056152
aF0.4078829288482666
aF3.9384498596191406
aF0.4462428092956543
aF0.5389828681945801
a(lp1119
g3
(g7
S'H \x80\x92t#:@'
p1120
tp1121
Rp1122
ag3
(g7
S'Z5@X9\x05:@'
p1123
tp1124
Rp1125
ag3
(g7
S'\x98\x97(v\x8e\x0b8@'
p1126
tp1127
Rp1128
ag3
(g7
S'cG\xd5\x10\xd8G:@'
p1129
tp1130
Rp1131
ag3
(g7
S'R\x1f\x8dTJh:@'
p1132
tp1133
Rp1134
ag3
(g7
S'gEO\xc6\n\xee9@'
p1135
tp1136
Rp1137
(lp1138
g3
(g7
S'an\xf0\x88\xc6\xce\x98B'
p1139
tp1140
Rp1141
ag3
(g7
S'\xc3\xb5\xc5Us1\x98B'
p1142
tp1143
Rp1144
ag3
(g7
S'/\xca\xf9\x1e>i\x95B'
p1145
tp1146
Rp1147
ag3
(g7
S'\xcc\xb1\x159\xf7S\x95B'
p1148
tp1149
Rp1150
ag3
(g7
S'\x87\xee3\xcbL8\x95B'
p1151
tp1152
Rp1153
atp1154
sI36
((lp1155
F0.588630199432373
aF1.6401419639587402
aF0.8065760135650635
aF0.3873410224914551
aF4.82246994972229
a(lp1156
g3
(g7
S'\xb4\x1b\x80\x11\xcb\xdf9@'
p1157
tp1158
Rp1159
ag3
(g7
S'0\xbd\xd1\xf1\xaf\xee8@'
p1160
tp1161
Rp1162
ag3
(g7
S's\xcbQD\r\x839@'
p1163
tp1164
Rp1165
ag3
(g7
S'\xcd\x18V\xd5NQ;@'
p1166
tp1167
Rp1168
ag3
(g7
S"\x87\xa8\xe9-'\x997@"
p1169
tp1170
Rp1171
ag3
(g7
S'\xe5\xda \x9ct{9@'
p1172
tp1173
Rp1174
(lp1175
g3
(g7
S'\xbe\x08\xfaZ\xff\xac\x93B'
p1176
tp1177
Rp1178
ag3
(g7
S'ZmH\x06D\xda\x90B'
p1179
tp1180
Rp1181
ag3
(g7
S"\x10\xe6\xd2'\xc47\x90B"
p1182
tp1183
Rp1184
ag3
(g7
S'\x94o\x1d\x0c\xa0\xe0\x8fB'
p1185
tp1186
Rp1187
ag3
(g7
S'\xce\n\xce\x1e\x98\xd8\x8cB'
p1188
tp1189
Rp1190
atp1191
sI37
((lp1192
F2.9631829261779785
aF0.7639060020446777
aF1.680562973022461
aF4.0620598793029785
aF7.197494029998779
a(lp1193
g3
(g7
S'=\x1c\x87.S\xbb9@'
p1194
tp1195
Rp1196
ag3
(g7
S"c'\x10n\xae{;@"
p1197
tp1198
Rp1199
ag3
(g7
S'\xfeL"\xad\xbb\x03:@'
p1200
tp1201
Rp1202
ag3
(g7
S'\n7u\x17WP9@'
p1203
tp1204
Rp1205
ag3
(g7
S'Vrh\xca\xb2\xf48@'
p1206
tp1207
Rp1208
ag3
(g7
S'kw:\xb4\x80}:@'
p1209
tp1210
Rp1211
(lp1212
g3
(g7
S'\x0e\x89\x10ey\x18\xb3B'
p1213
tp1214
Rp1215
ag3
(g7
S'\xcb"5\xd5J\xa3\xb2B'
p1216
tp1217
Rp1218
ag3
(g7
S'\xd8\x8aG\xff\x91\x1c\xb2B'
p1219
tp1220
Rp1221
ag3
(g7
S'\xf6\xcet3\x8fT\xb1B'
p1222
tp1223
Rp1224
ag3
(g7
S'0\nB\x9c\x01\x92\xb0B'
p1225
tp1226
Rp1227
atp1228
sI38
((lp1229
F0.5303058624267578
aF1.9561328887939453
aF2.2427821159362793
aF0.22841811180114746
aF2.1343088150024414
a(lp1230
g3
(g7
S'_\x0b\xd5\xd9\x91\xdc;@'
p1231
tp1232
Rp1233
ag3
(g7
S'1Ed\xfe\x9as:@'
p1234
tp1235
Rp1236
ag3
(g7
S'\xf0\xdd}\x1b\xd9\x17:@'
p1237
tp1238
Rp1239
ag3
(g7
S'\x91\xd9e\xa4zK<@'
p1240
tp1241
Rp1242
ag3
(g7
S'\x809l[\xf3):@'
p1243
tp1244
Rp1245
ag3
(g7
S'\x04\xf5M\xea[,:@'
p1246
tp1247
Rp1248
(lp1249
g3
(g7
S'Rkh?\xcd\xec\xb7B'
p1250
tp1251
Rp1252
ag3
(g7
S'\xd6\xf8*\x1f\x8e\xd2\xb4B'
p1253
tp1254
Rp1255
ag3
(g7
S'K\xe9\x18R\n0\xb3B'
p1256
tp1257
Rp1258
ag3
(g7
S'=c\x89\xfc\xc9\x18\xb3B'
p1259
tp1260
Rp1261
ag3
(g7
S'\xb6]\x02\xdf)i\xb2B'
p1262
tp1263
Rp1264
atp1265
sI39
((lp1266
F2.9667129516601562
aF10.701472997665405
aF0.4905970096588135
aF0.6654200553894043
aF2.795440912246704
a(lp1267
g3
(g7
S'\xc2\xf1q\\\x14\xec<@'
p1268
tp1269
Rp1270
ag3
(g7
S'\xdc\xe5K\x9e\xc2\x91;@'
p1271
tp1272
Rp1273
ag3
(g7
S's\xd5\xb3\x13\rt?@'
p1274
tp1275
Rp1276
ag3
(g7
S'N\xb0~\xba\xa5\xa0>@'
p1277
tp1278
Rp1279
ag3
(g7
S'e\\\xf9\x0bz\t=@'
p1280
tp1281
Rp1282
ag3
(g7
S'\xaf\xec\xbbx?\xb3=@'
p1283
tp1284
Rp1285
(lp1286
g3
(g7
S'O\x1f\xdf]\xea\x0f\xf8B'
p1287
tp1288
Rp1289
ag3
(g7
S'\xe2\xc7W\xfa\x98\x0f\xf5B'
p1290
tp1291
Rp1292
ag3
(g7
S'\x16dP\xc5\xdf\x00\xf5B'
p1293
tp1294
Rp1295
ag3
(g7
S'j\xca\xc1\xe3\x89\xe9\xf4B'
p1296
tp1297
Rp1298
ag3
(g7
S'D\xdb\x13\xc62\x9b\xf4B'
p1299
tp1300
Rp1301
atp1302
sI40
((lp1303
F2.7141809463500977
aF1.4038500785827637
aF6.5208752155303955
aF0.938209056854248
aF2.0260329246520996
a(lp1304
g3
(g7
S'\t\xbcQ\xa8L/>@'
p1305
tp1306
Rp1307
ag3
(g7
S'\x979C\x96\xf7\xfa>@'
p1308
tp1309
Rp1310
ag3
(g7
S"'{{\x88\x8fg=@"
p1311
tp1312
Rp1313
ag3
(g7
S'\x82Q\xdf\xd7C/?@'
p1314
tp1315
Rp1316
ag3
(g7
S'\xb2\xbe\x88\xf7?T>@'
p1317
tp1318
Rp1319
ag3
(g7
S'J\xff\xe2\xa4\x88\xcb>@'
p1320
tp1321
Rp1322
(lp1323
g3
(g7
S"\xed}\xf0h\x87'\x14C"
p1324
tp1325
Rp1326
ag3
(g7
S'~\xe5o\xba\x04\x83\x13C'
p1327
tp1328
Rp1329
ag3
(g7
S'\xdd\x88E\t\x00B\x12C'
p1330
tp1331
Rp1332
ag3
(g7
S'}f<\x8c\x883\x12C'
p1333
tp1334
Rp1335
ag3
(g7
S'\xd6\xfe\x9cMi\x03\x12C'
p1336
tp1337
Rp1338
atp1339
sI41
((lp1340
F14.327976942062378
aF4.990217924118042
aF1.9492950439453125
aF0.901292085647583
aF3.482023000717163
a(lp1341
g3
(g7
S'\x84\x15\x87\xf6\x82\xc29@'
p1342
tp1343
Rp1344
ag3
(g7
S'&\xff$i\x11\xca:@'
p1345
tp1346
Rp1347
ag3
(g7
S'n\x13\xf6]e\xcf;@'
p1348
tp1349
Rp1350
ag3
(g7
S'\xd6$?\xb5\xf0$<@'
p1351
tp1352
Rp1353
ag3
(g7
S'\xa1V\xd2\xcb\xd4\x1c;@'
p1354
tp1355
Rp1356
ag3
(g7
S'h\xfeb\xcaR\xab;@'
p1357
tp1358
Rp1359
(lp1360
g3
(g7
S'\xc0\x8dO2e$\xd1B'
p1361
tp1362
Rp1363
ag3
(g7
S'DaM\xfbx\xb8\xd0B'
p1364
tp1365
Rp1366
ag3
(g7
S'Q\xae\xf3zZ\xa1\xd0B'
p1367
tp1368
Rp1369
ag3
(g7
S'\x98\x85\\\xe60\x8c\xd0B'
p1370
tp1371
Rp1372
ag3
(g7
S'pr\x87\x8d\xdf[\xd0B'
p1373
tp1374
Rp1375
atp1376
sI42
((lp1377
F3.47446608543396
aF5.58421516418457
aF1.1102628707885742
aF1.4558379650115967
aF2.1872670650482178
a(lp1378
g3
(g7
S'\x98#[K\xea\x98>@'
p1379
tp1380
Rp1381
ag3
(g7
S'\xf5|}\xd7\xb2\x00>@'
p1382
tp1383
Rp1384
ag3
(g7
S'D;\x08\xf3H1?@'
p1385
tp1386
Rp1387
ag3
(g7
S'M\xcfAa\xefE?@'
p1388
tp1389
Rp1390
ag3
(g7
S's\xa3^\xf8\xd6\xf6>@'
p1391
tp1392
Rp1393
ag3
(g7
S'j\xa4\xeb\x99k\xe9>@'
p1394
tp1395
Rp1396
(lp1397
g3
(g7
S'=\xa1\x92\x07<\x1a\x18C'
p1398
tp1399
Rp1400
ag3
(g7
S'\x9c\xea\x8br\xefp\x16C'
p1401
tp1402
Rp1403
ag3
(g7
S'\xd5\xea"\x86\xc6)\x16C'
p1404
tp1405
Rp1406
ag3
(g7
S'\x85\xa0 \x1f\xa7\xd2\x15C'
p1407
tp1408
Rp1409
ag3
(g7
S'\xf4\xf0E\xebK\xa2\x15C'
p1410
tp1411
Rp1412
atp1413
sI43
((lp1414
F1.8820381164550781
aF4.170706033706665
aF10.910228967666626
aF1.5783510208129883
aF2.968130111694336
a(lp1415
g3
(g7
S'xO:\xf8D\xa1@@'
p1416
tp1417
Rp1418
ag3
(g7
S'\x99\x9c\xcd\xd23\\@@'
p1419
tp1420
Rp1421
ag3
(g7
S'eO\x8d\xf18\xa0?@'
p1422
tp1423
Rp1424
ag3
(g7
S'j+QB\xd6\nA@'
p1425
tp1426
Rp1427
ag3
(g7
S'\x9c;\x10A\xdaX@@'
p1428
tp1429
Rp1430
ag3
(g7
S'\xa6\xe5G\xc7\xca\xa0@@'
p1431
tp1432
Rp1433
(lp1434
g3
(g7
S'\xea>w\xf7f,MC'
p1435
tp1436
Rp1437
ag3
(g7
S'\xb2\xc99h\x9e KC'
p1438
tp1439
Rp1440
ag3
(g7
S'\x90\xbaK\x9a\xc6\x80IC'
p1441
tp1442
Rp1443
ag3
(g7
S'\xba}/\xc6\x88fIC'
p1444
tp1445
Rp1446
ag3
(g7
S'b\x92\xec\xde\x12 IC'
p1447
tp1448
Rp1449
atp1450
sI44
((lp1451
F2.767503023147583
aF4.5993170738220215
aF4.117952108383179
aF0.35991883277893066
aF1.3597970008850098
a(lp1452
g3
(g7
S'\xa8\x07\xa7\x08\x96\x13>@'
p1453
tp1454
Rp1455
ag3
(g7
S'J\xb4\xddg=\xbc=@'
p1456
tp1457
Rp1458
ag3
(g7
S'?\xf4O\xc3\x9b\xa3=@'
p1459
tp1460
Rp1461
ag3
(g7
S'\xdf\xe5\x0e\r\xe2 @@'
p1462
tp1463
Rp1464
ag3
(g7
S'Ypo\xe5\xf3\xf7>@'
p1465
tp1466
Rp1467
ag3
(g7
S'\xfe\x960"*\x85=@'
p1468
tp1469
Rp1470
(lp1471
g3
(g7
S'i0L\x99\x92\xff\x10C'
p1472
tp1473
Rp1474
ag3
(g7
S"9\xe8Q\xfcE'\x0fC"
p1475
tp1476
Rp1477
ag3
(g7
S'\x8e\xfb\xe8N\xf3\xf0\rC'
p1478
tp1479
Rp1480
ag3
(g7
S'n\x18\x01\xbat\xe8\rC'
p1481
tp1482
Rp1483
ag3
(g7
S'P\xa2\x01\xfc\xe2\x88\rC'
p1484
tp1485
Rp1486
atp1487
sI45
((lp1488
F2.2268710136413574
aF5.265026092529297
aF26.764997005462646
aF24.678210973739624
aF2.349022150039673
a(lp1489
g3
(g7
S'\\A\x91\xc19\xf1@@'
p1490
tp1491
Rp1492
ag3
(g7
S'k\x80\xf2\xd0>y@@'
p1493
tp1494
Rp1495
ag3
(g7
S'D \xa9\xc5\xa4\x1d?@'
p1496
tp1497
Rp1498
ag3
(g7
S'\xd2@\xf8\xa1\x19#?@'
p1499
tp1500
Rp1501
ag3
(g7
S'\xe7`L\\\xeb\xbd@@'
p1502
tp1503
Rp1504
ag3
(g7
S'\xf7\xfe-G\xe1\x82@@'
p1505
tp1506
Rp1507
(lp1508
g3
(g7
S'\xa8\xea\xa6[\x93B\\C'
p1509
tp1510
Rp1511
ag3
(g7
S'\xd0D!5\xcfdYC'
p1512
tp1513
Rp1514
ag3
(g7
S'~:\xb9\x07\x85\xfaUC'
p1515
tp1516
Rp1517
ag3
(g7
S'\x1f\x16\x04\xff\xee\xd8TC'
p1518
tp1519
Rp1520
ag3
(g7
S'G\x8e\x02\xfb\xf1\xc4TC'
p1521
tp1522
Rp1523
atp1524
sI46
((lp1525
F7.298869848251343
aF12.686492919921875
aF8.90660309791565
aF2.3282010555267334
aF7.683628082275391
a(lp1526
g3
(g7
S',\xaeO\xbc\x113A@'
p1527
tp1528
Rp1529
ag3
(g7
S'\xb5\xd8\xcdm?\x01A@'
p1530
tp1531
Rp1532
ag3
(g7
S'k\xab\xc1\x82c(A@'
p1533
tp1534
Rp1535
ag3
(g7
S'\x82\x05s\xab\xdb\xd7A@'
p1536
tp1537
Rp1538
ag3
(g7
S'\x17M\x00\xf7\xd7@A@'
p1539
tp1540
Rp1541
ag3
(g7
S'\xfe)6\x132\xa4A@'
p1542
tp1543
Rp1544
(lp1545
g3
(g7
S'\x88\x9c\xbe\xb9\xed\x1b\x85C'
p1546
tp1547
Rp1548
ag3
(g7
S'8\xfcX\x85}\x93\x83C'
p1549
tp1550
Rp1551
ag3
(g7
S'\x9a\x82\x91\xddi\xe5\x82C'
p1552
tp1553
Rp1554
ag3
(g7
S'\xbb7\xd41]\xcb\x82C'
p1555
tp1556
Rp1557
ag3
(g7
S'#/\x95\x818\x87\x82C'
p1558
tp1559
Rp1560
atp1561
sI47
((lp1562
F21.8975510597229
aF2.632873058319092
aF18.369362115859985
aF20.71668314933777
aF4.263921022415161
a(lp1563
g3
(g7
S'\x99N^\xb1\x91\xcf@@'
p1564
tp1565
Rp1566
ag3
(g7
S'Ju\x8e\xe4\x1b\xdbA@'
p1567
tp1568
Rp1569
ag3
(g7
S'\xd7\xdfR\xeer\xda@@'
p1570
tp1571
Rp1572
ag3
(g7
S'\x89!<\xfc\x80\xce@@'
p1573
tp1574
Rp1575
ag3
(g7
S'\xfa\x9fRQ\x85\x86A@'
p1576
tp1577
Rp1578
ag3
(g7
S'0\xaf\x1d\xdd/PA@'
p1579
tp1580
Rp1581
(lp1582
g3
(g7
S'k%\xbd\xa4\x01\xc1\x87C'
p1583
tp1584
Rp1585
ag3
(g7
S'\x8f\xc5\x89\xcbO\x8a\x87C'
p1586
tp1587
Rp1588
ag3
(g7
S'\xda\xf6\xef\xdf\xc3\x8a\x86C'
p1589
tp1590
Rp1591
ag3
(g7
S'\xb5\xe6\xe0\xc4B\xcd\x85C'
p1592
tp1593
Rp1594
ag3
(g7
S'\xf2L;\x9f\x95\xb5\x85C'
p1595
tp1596
Rp1597
atp1598
sI48
((lp1599
F9.340183973312378
aF11.166315078735352
aF8.985091924667358
aF14.601598024368286
aF12.541829109191895
a(lp1600
g3
(g7
S'\x9e\\\xc1\x9d\x85\xf0A@'
p1601
tp1602
Rp1603
ag3
(g7
S'\x91KU\x8b\x13\xdaA@'
p1604
tp1605
Rp1606
ag3
(g7
S'\x8b\xf6\xbe5?\xe8A@'
p1607
tp1608
Rp1609
ag3
(g7
S'\xba\xfbb(\xc7\xb5A@'
p1610
tp1611
Rp1612
ag3
(g7
S'\xa1r;\x9d\xca\xbaA@'
p1613
tp1614
Rp1615
ag3
(g7
S'\ti\x9b\x8c{\rB@'
p1616
tp1617
Rp1618
(lp1619
g3
(g7
S'\x91\xb9\xfeD\xc0\x87\xa8C'
p1620
tp1621
Rp1622
ag3
(g7
S'\xf0\xf8\xc1\x96\xc6\x1f\xa7C'
p1623
tp1624
Rp1625
ag3
(g7
S'\xeb\xdaZ\x83\xedk\xa6C'
p1626
tp1627
Rp1628
ag3
(g7
S'\x16\x86/\xa8}\xd8\xa5C'
p1629
tp1630
Rp1631
ag3
(g7
S'\x80b\x93\x87\xbf^\xa5C'
p1632
tp1633
Rp1634
atp1635
sI49
((lp1636
F12.742439985275269
aF8.167787075042725
aF46.74105405807495
aF18.893436908721924
aF4.530125856399536
a(lp1637
g3
(g7
S'\xc0\xff \xa7!3C@'
p1638
tp1639
Rp1640
ag3
(g7
S'v\xaf\xa1\xd6\xbbcC@'
p1641
tp1642
Rp1643
ag3
(g7
S'$,\xad\x861}B@'
p1644
tp1645
Rp1646
ag3
(g7
S'\xd3\xcf\xebS\xc9\xe8B@'
p1647
tp1648
Rp1649
ag3
(g7
S'\x89\xde\x87T!\xc0C@'
p1650
tp1651
Rp1652
ag3
(g7
S'\xb4V\x1e\xb9\xe7DC@'
p1653
tp1654
Rp1655
(lp1656
g3
(g7
S'\xe0\xf9\xdc&\xb1n\xe7C'
p1657
tp1658
Rp1659
ag3
(g7
S'\xde\xc7d\xe2!\x85\xe6C'
p1660
tp1661
Rp1662
ag3
(g7
S"'\xb4\xc2j\x0fe\xe4C"
p1663
tp1664
Rp1665
ag3
(g7
S'LK\x81h\x8c\x00\xe4C'
p1666
tp1667
Rp1668
ag3
(g7
S'\x7f\x8f\xa1\xddb\xec\xe3C'
p1669
tp1670
Rp1671
atp1672
sI50
((lp1673
F14.357286930084229
aF4.886064052581787
aF2.2054240703582764
aF17.404184818267822
aF21.404793977737427
a(lp1674
g3
(g7
S'\xe5B\x16\r\xbc.D@'
p1675
tp1676
Rp1677
ag3
(g7
S'\xd9}\\\xab\xf3\xb0D@'
p1678
tp1679
Rp1680
ag3
(g7
S'\xbb]N,N1E@'
p1681
tp1682
Rp1683
ag3
(g7
S'\xd3~\xcb\x93\xbb\x19D@'
p1684
tp1685
Rp1686
ag3
(g7
S'\xc6(\xa8\xd7\x08\xf5C@'
p1687
tp1688
Rp1689
ag3
(g7
S'x\xd8\xa4@\xd5\x86D@'
p1690
tp1691
Rp1692
(lp1693
g3
(g7
S'H\xaeyYw\xbe\x15D'
p1694
tp1695
Rp1696
ag3
(g7
S'\xa1Y(l\x98A\x15D'
p1697
tp1698
Rp1699
ag3
(g7
S'\xe0\xe9\xe5^\n\x1e\x15D'
p1700
tp1701
Rp1702
ag3
(g7
S'\xd3&\xafr\xf2?\x14D'
p1703
tp1704
Rp1705
ag3
(g7
S'\xd1\xa5\xee\xadm\xa0\x13D'
p1706
tp1707
Rp1708
atp1709
sI51
((lp1710
F7.037729978561401
aF42.32674288749695
aF6.459019899368286
aF9.415990114212036
aF6.503556966781616
a(lp1711
g3
(g7
S'\x0b)e\xcd\x1c6D@'
p1712
tp1713
Rp1714
ag3
(g7
S'2\xb8P\x14\xbbBC@'
p1715
tp1716
Rp1717
ag3
(g7
S'ip\n\xd6\xddLD@'
p1718
tp1719
Rp1720
ag3
(g7
S'g\x83k\xc0\xa7\x03D@'
p1721
tp1722
Rp1723
ag3
(g7
S'i\xc2J8u@D@'
p1724
tp1725
Rp1726
ag3
(g7
S'\xb2\\\xbd\xc7\n\x17D@'
p1727
tp1728
Rp1729
(lp1730
g3
(g7
S'.\xb0\x14\xd9\xc6\x15\x05D'
p1731
tp1732
Rp1733
ag3
(g7
S'\xb8*\x96-"5\x02D'
p1734
tp1735
Rp1736
ag3
(g7
S'\xad8\x99%q\x0f\x02D'
p1737
tp1738
Rp1739
ag3
(g7
S'-\xb6\x0c\xcf\xf6\xde\x01D'
p1740
tp1741
Rp1742
ag3
(g7
S'r\xebd \xba\xca\x01D'
p1743
tp1744
Rp1745
atp1746
sI52
((lp1747
F7.5996692180633545
aF2.7756388187408447
aF22.218079805374146
aF5.089662790298462
aF26.328247785568237
a(lp1748
g3
(g7
S'\xc1\xae>~\tKC@'
p1749
tp1750
Rp1751
ag3
(g7
S'\xaf\xc9bj\xd9\xabC@'
p1752
tp1753
Rp1754
ag3
(g7
S'\xf3\xe4x\xf8l\xa7B@'
p1755
tp1756
Rp1757
ag3
(g7
S'_\xccu\x9d\x9bhC@'
p1758
tp1759
Rp1760
ag3
(g7
S'\xff\x03\x1faa\x92B@'
p1761
tp1762
Rp1763
ag3
(g7
S'\xf8\xe5\xdf\x1d\x1a\rC@'
p1764
tp1765
Rp1766
(lp1767
g3
(g7
S'\x89\x05\xe5\x8cv\x92\xdbC'
p1768
tp1769
Rp1770
ag3
(g7
S'\xc5\xf3\x8b[\x8d\xd7\xdaC'
p1771
tp1772
Rp1773
ag3
(g7
S' \x8b_\x89:\x91\xd8C'
p1774
tp1775
Rp1776
ag3
(g7
S'-\xb3\x0e\x897R\xd8C'
p1777
tp1778
Rp1779
ag3
(g7
S'\xf2\xfc\x968\x91x\xd7C'
p1780
tp1781
Rp1782
atp1783
sI53
((lp1784
F40.88897490501404
aF61.89907789230347
aF26.31625008583069
aF35.6693069934845
aF72.99545311927795
a(lp1785
g3
(g7
S'^]i\xed\x82\xd9C@'
p1786
tp1787
Rp1788
ag3
(g7
S'1\xe3_we\x9cC@'
p1789
tp1790
Rp1791
ag3
(g7
S'B\x9e\xb4\xf9\xfd\x00D@'
p1792
tp1793
Rp1794
ag3
(g7
S'\xf0\x8e\xad0\xb6\xdeC@'
p1795
tp1796
Rp1797
ag3
(g7
S'a\x9b\x1a?\xfd\x80C@'
p1798
tp1799
Rp1800
ag3
(g7
S'.\xa6\x8a\xdc\x8czD@'
p1801
tp1802
Rp1803
(lp1804
g3
(g7
S"\xa4\xff\xe7'\x11G\x1eD"
p1805
tp1806
Rp1807
ag3
(g7
S'\xda\x933\xdb\x17\xaf\x1bD'
p1808
tp1809
Rp1810
ag3
(g7
S'\xab,\xc9\x0f]\x17\x1bD'
p1811
tp1812
Rp1813
ag3
(g7
S'n\xa4\xcc\xee\xddZ\x1aD'
p1814
tp1815
Rp1816
ag3
(g7
S'x \x86pX[\x19D'
p1817
tp1818
Rp1819
atp1820
sI54
((lp1821
F6.306417942047119
aF7.01792311668396
aF58.86809206008911
aF7.094156980514526
aF19.344377994537354
a(lp1822
g3
(g7
S'3\xf3\x8aw\xbc\xd7C@'
p1823
tp1824
Rp1825
ag3
(g7
S'\t\xa4\x0cr?\xdbC@'
p1826
tp1827
Rp1828
ag3
(g7
S'\xe3\xd1cLK\xbfB@'
p1829
tp1830
Rp1831
ag3
(g7
S'H\xaf\xc6\x0f1\xbdC@'
p1832
tp1833
Rp1834
ag3
(g7
S'\xb7\xc4\x02\x83X@C@'
p1835
tp1836
Rp1837
ag3
(g7
S'\xbf\xdf\xb9\x05\x8c/C@'
p1838
tp1839
Rp1840
(lp1841
g3
(g7
S'\x88\x9e\x86g\x82H\xf3C'
p1842
tp1843
Rp1844
ag3
(g7
S'-\x10\xa4\xd6\xdfD\xf2C'
p1845
tp1846
Rp1847
ag3
(g7
S'\xa3\xfa\xedS\xf5h\xefC'
p1848
tp1849
Rp1850
ag3
(g7
S'c\xc3\xe0&\xa6:\xefC'
p1851
tp1852
Rp1853
ag3
(g7
S'\xab\xa8\xe31+\xba\xeeC'
p1854
tp1855
Rp1856
atp1857
sI55
((lp1858
F37.727603912353516
aF51.39808893203735
aF27.761690855026245
aF24.770183086395264
aF77.5930528640747
a(lp1859
g3
(g7
S'\x9629\x9a\xff\xf4C@'
p1860
tp1861
Rp1862
ag3
(g7
S'\xf6b\x96U{\xbeC@'
p1863
tp1864
Rp1865
ag3
(g7
S'\xb5B\x9b\x1a\x11\xfdC@'
p1866
tp1867
Rp1868
ag3
(g7
S'\x9e\x184f\xff\x19D@'
p1869
tp1870
Rp1871
ag3
(g7
S'W\xb4j\x0f\x8f\x91C@'
p1872
tp1873
Rp1874
ag3
(g7
S'\xd9\xf1GZ\xa0\x0fD@'
p1875
tp1876
Rp1877
(lp1878
g3
(g7
S'M6-f(\xfd\x19D'
p1879
tp1880
Rp1881
ag3
(g7
S'\xd0\xf4J\x9b\xd3m\x18D'
p1882
tp1883
Rp1884
ag3
(g7
S'\xa8\x06l\x84u\xeb\x17D'
p1885
tp1886
Rp1887
ag3
(g7
S'd\x18qD\x97\x8f\x17D'
p1888
tp1889
Rp1890
ag3
(g7
S'g\x94P\x9d\x0f\xd8\x16D'
p1891
tp1892
Rp1893
atp1894
sI56
((lp1895
F19.994323015213013
aF142.8598780632019
aF3.306328058242798
aF0.721872091293335
aF23.916474103927612
a(lp1896
g3
(g7
S'\x05\xecGk\x04\xcdE@'
p1897
tp1898
Rp1899
ag3
(g7
S'\xdf\xd0\x0e\x1d\x96\xcdD@'
p1900
tp1901
Rp1902
ag3
(g7
S'\x08B\xe6\x96\xf6\xbdF@'
p1903
tp1904
Rp1905
ag3
(g7
S'iAu1\xeacG@'
p1906
tp1907
Rp1908
ag3
(g7
S')0^I\xa9\xb9E@'
p1909
tp1910
Rp1911
ag3
(g7
S'X\xa5\xd1\xe2I\xe0E@'
p1912
tp1913
Rp1914
(lp1915
g3
(g7
S'\x00\x9au\x10\x16_aD'
p1916
tp1917
Rp1918
ag3
(g7
S'V\x14\xd1\x9c1+^D'
p1919
tp1920
Rp1921
ag3
(g7
S'\xe9H\xbb\xd9\x0f#^D'
p1922
tp1923
Rp1924
ag3
(g7
S'\x94 \xe3\xa88"^D'
p1925
tp1926
Rp1927
ag3
(g7
S'7\xf5\xf0pK\xe1]D'
p1928
tp1929
Rp1930
atp1931
sI57
((lp1932
F299.15011501312256
aF23.223932027816772
aF137.69548392295837
aF6.662958860397339
aF10.434838056564331
a(lp1933
g3
(g7
S'\xa6\xcb\x91\xe0\xed\xb2C@'
p1934
tp1935
Rp1936
ag3
(g7
S'\xfag5 \x13\xf8D@'
p1937
tp1938
Rp1939
ag3
(g7
S'\x8f\x91uK!\x15D@'
p1940
tp1941
Rp1942
ag3
(g7
S'R\x80\x92\xfe\xba\x8cE@'
p1943
tp1944
Rp1945
ag3
(g7
S'0\xc3&=1NE@'
p1946
tp1947
Rp1948
ag3
(g7
S'g\xef?\x15,\xa4D@'
p1949
tp1950
Rp1951
(lp1952
g3
(g7
S'\xc4\x0e*\x11\xadH<D'
p1953
tp1954
Rp1955
ag3
(g7
S'\xd9@\xf2\xdcy\x1c<D'
p1956
tp1957
Rp1958
ag3
(g7
S'\xced\xb8)\xda&;D'
p1959
tp1960
Rp1961
ag3
(g7
S'\xaf\x17\xdd\xee^\x1a;D'
p1962
tp1963
Rp1964
ag3
(g7
S'\xbb\x82\x12x;\x06;D'
p1965
tp1966
Rp1967
atp1968
sI58
((lp1969
F12.97984504699707
aF87.80351996421814
aF200.2065920829773
aF152.53366017341614
aF34.75620794296265
a(lp1970
g3
(g7
S'q\x94\xe9\xb8\x91bF@'
p1971
tp1972
Rp1973
ag3
(g7
S'\xae\xfcw\xd8\xc0BE@'
p1974
tp1975
Rp1976
ag3
(g7
S'\xc5\rd\xd7y\xe9D@'
p1977
tp1978
Rp1979
ag3
(g7
S'\xbeP\xdb\x80t\x0fE@'
p1980
tp1981
Rp1982
ag3
(g7
S'\x16\xc1\xfa\xf6\xf7\xd4E@'
p1983
tp1984
Rp1985
ag3
(g7
S']}\x1bG\x86\x92E@'
p1986
tp1987
Rp1988
(lp1989
g3
(g7
S"':4\t\x9c\xcdpD"
p1990
tp1991
Rp1992
ag3
(g7
S'\xb9\x8b\xda\x8a\x98\xe3kD'
p1993
tp1994
Rp1995
ag3
(g7
S'y\xf2Y!B[iD'
p1996
tp1997
Rp1998
ag3
(g7
S'f\x07T\xceY\x81hD'
p1999
tp2000
Rp2001
ag3
(g7
S'J\xd2,i\xe6`hD'
p2002
tp2003
Rp2004
atp2005
sI59
((lp2006
F14.754274129867554
aF78.20520496368408
aF12.568827152252197
aF246.55567908287048
aF35.52875995635986
a(lp2007
g3
(g7
S'\xcdC[\xfa\x04HH@'
p2008
tp2009
Rp2010
ag3
(g7
S'"1nYO?G@'
p2011
tp2012
Rp2013
ag3
(g7
S']D\xacm\x0b1H@'
p2014
tp2015
Rp2016
ag3
(g7
S'P,qyO\xb3F@'
p2017
tp2018
Rp2019
ag3
(g7
S'\xb7/Er%\x93G@'
p2020
tp2021
Rp2022
ag3
(g7
S'i\x023\x92Q\x99G@'
p2023
tp2024
Rp2025
(lp2026
g3
(g7
S'\x9d+\x10\xfc5(\xc4D'
p2027
tp2028
Rp2029
ag3
(g7
S'\xafd\xf6\xfa[\xe3\xc0D'
p2030
tp2031
Rp2032
ag3
(g7
S'\x0c\x1c\xd4a\xa2\xb3\xc0D'
p2033
tp2034
Rp2035
ag3
(g7
S'A\xc2`\xa3\xc6a\xbeD'
p2036
tp2037
Rp2038
ag3
(g7
S'\x82\t+z5\x1e\xbeD'
p2039
tp2040
Rp2041
atp2042
sI60
((lp2043
F4.700060129165649
aF40.00388813018799
aF1.7787141799926758
aF23.341007947921753
aF34.09028196334839
a(lp2044
g3
(g7
S'\xb4w\x8d\x89\xaf\xb5I@'
p2045
tp2046
Rp2047
ag3
(g7
S'\xf7\x88\xad\xde\xb9ZH@'
p2048
tp2049
Rp2050
ag3
(g7
S'\x02\xf6\x03\xc5\x8a\x9fI@'
p2051
tp2052
Rp2053
ag3
(g7
S'\x95\xcd\x190_SH@'
p2054
tp2055
Rp2056
ag3
(g7
S'\xf1\xb7\xd0\xbc\xa9-H@'
p2057
tp2058
Rp2059
ag3
(g7
S'E8\x13\x1b\x8f^H@'
p2060
tp2061
Rp2062
(lp2063
g3
(g7
S'8\xe7\x0cX&y\xe1D'
p2064
tp2065
Rp2066
ag3
(g7
S"\xff\x0f'\xcf,w\xdbD"
p2067
tp2068
Rp2069
ag3
(g7
S'\x9a\x8cxu~g\xdbD'
p2070
tp2071
Rp2072
ag3
(g7
S'\x84\xef\xa5\xfb\xfc\x0c\xdaD'
p2073
tp2074
Rp2075
ag3
(g7
S'\xd5y<\xfe\xfa\x18\xd9D'
p2076
tp2077
Rp2078
atp2079
sI61
((lp2080
F60.957534074783325
aF228.6184320449829
aF39.16476893424988
aF14.47878098487854
aF59.292524099349976
a(lp2081
g3
(g7
S'o\x0b-\xa9n\xbdG@'
p2082
tp2083
Rp2084
ag3
(g7
S'f\x10@o\xa0"G@'
p2085
tp2086
Rp2087
ag3
(g7
S'&s9(+\x04H@'
p2088
tp2089
Rp2090
ag3
(g7
S'\\cjY\x97~H@'
p2091
tp2092
Rp2093
ag3
(g7
S'\nkL\x1c\xe4\xd4G@'
p2094
tp2095
Rp2096
ag3
(g7
S'\xd4+\x80y@\xf0G@'
p2097
tp2098
Rp2099
(lp2100
g3
(g7
S'j:\xbb\xc0\x9c\xc4\xd1D'
p2101
tp2102
Rp2103
ag3
(g7
S'\x18\xb7|[\x03\t\xd0D'
p2104
tp2105
Rp2106
ag3
(g7
S'\x0b\x9e\xa0GS\xd3\xcfD'
p2107
tp2108
Rp2109
ag3
(g7
S'\x81\xaf5F\xe8\xbf\xcfD'
p2110
tp2111
Rp2112
ag3
(g7
S'\x0c\xae\x0c\x06\xfet\xcfD'
p2113
tp2114
Rp2115
atp2116
sI62
((lp2117
F107.71590089797974
aF32.64389181137085
aF131.29401397705078
aF159.07629799842834
aF21.353023052215576
a(lp2118
g3
(g7
S'\xed;m<\xdb\x81H@'
p2119
tp2120
Rp2121
ag3
(g7
S'\x8a\xd7Js\xee0I@'
p2122
tp2123
Rp2124
ag3
(g7
S'1\xf1\xe1pImH@'
p2125
tp2126
Rp2127
ag3
(g7
S'\xba=wC\xeeWH@'
p2128
tp2129
Rp2130
ag3
(g7
S'\xa7\xab\xa9\xf1\x97HI@'
p2131
tp2132
Rp2133
ag3
(g7
S'\xe6\x92H!t\x01I@'
p2134
tp2135
Rp2136
(lp2137
g3
(g7
S'\xcb\xe3$\x015\xf4\xffD'
p2138
tp2139
Rp2140
ag3
(g7
S'H\x13 yp}\xffD'
p2141
tp2142
Rp2143
ag3
(g7
S'\x83.\x03\xf5jL\xfeD'
p2144
tp2145
Rp2146
ag3
(g7
S'\xd0{\xab\xfa\xc5\x8e\xfdD'
p2147
tp2148
Rp2149
ag3
(g7
S'%\x8c\x0fb\xe1u\xfdD'
p2150
tp2151
Rp2152
atp2153
sI63
((lp2154
F127.15537905693054
aF11.748878955841064
aF90.5321888923645
aF25.49652910232544
aF159.78674602508545
a(lp2155
g3
(g7
S'@\xe6h\x89\xce\xadG@'
p2156
tp2157
Rp2158
ag3
(g7
S'C\x12\xf5&?\xf8H@'
p2159
tp2160
Rp2161
ag3
(g7
S'c,\xf6u\xf5\xdbG@'
p2162
tp2163
Rp2164
ag3
(g7
S'`\x94\xf8\x07\xfa~H@'
p2165
tp2166
Rp2167
ag3
(g7
S'\x10\xb9\x13\xa3(\x8dG@'
p2168
tp2169
Rp2170
ag3
(g7
S'C\xde\x80\xc5\xdf1H@'
p2171
tp2172
Rp2173
(lp2174
g3
(g7
S'P\xa1\xe7gbG\xdaD'
p2175
tp2176
Rp2177
ag3
(g7
S'D\xe5\x81\xe0g\x1a\xdaD'
p2178
tp2179
Rp2180
ag3
(g7
S'\xcc\x9fw\x00K\xc6\xd8D'
p2181
tp2182
Rp2183
ag3
(g7
S'Jk](\x15\x90\xd8D'
p2184
tp2185
Rp2186
ag3
(g7
S'B\\\x8e>:j\xd7D'
p2187
tp2188
Rp2189
atp2190
sI64
((lp2191
F33.871602058410645
aF31.460649013519287
aF33.64337182044983
aF376.58537101745605
aF156.4779851436615
a(lp2192
g3
(g7
S'\xcbV\xc6\xe6z2I@'
p2193
tp2194
Rp2195
ag3
(g7
S'q\xed\xe4\x13Z(I@'
p2196
tp2197
Rp2198
ag3
(g7
S'@\x8f\x1b\x96Z)I@'
p2199
tp2200
Rp2201
ag3
(g7
S'\x8e\x84\x9d\xcd\n\xfcG@'
p2202
tp2203
Rp2204
ag3
(g7
S':\x07\xca\x91&fH@'
p2205
tp2206
Rp2207
ag3
(g7
S'\x1ey\xf1p\x9f\xfbH@'
p2208
tp2209
Rp2210
(lp2211
g3
(g7
S'1\xe3\x8b\r\x88\x9c\x00E'
p2212
tp2213
Rp2214
ag3
(g7
S'v\x889Q^\xd2\xffD'
p2215
tp2216
Rp2217
ag3
(g7
S'PID]\x84\xf9\xfeD'
p2218
tp2219
Rp2220
ag3
(g7
S'\xb3-\xbaB\x91A\xfcD'
p2221
tp2222
Rp2223
ag3
(g7
S'\n;\xea\r\t\xb9\xfbD'
p2224
tp2225
Rp2226
atp2227
sI65
((lp2228
F92.50278115272522
aF106.97821402549744
aF7.510823011398315
aF1.322077989578247
aF163.02715706825256
a(lp2229
g3
(g7
S'\xfaj\x1by\x9ebH@'
p2230
tp2231
Rp2232
ag3
(g7
S'ie\xa7;\xbdYH@'
p2233
tp2234
Rp2235
ag3
(g7
S'\x1a\x84\xda\\\xd0\x97I@'
p2236
tp2237
Rp2238
ag3
(g7
S'\x17\x8e\x1d\x8b"\xcfJ@'
p2239
tp2240
Rp2241
ag3
(g7
S'\xa1\xe9e8\xdc$H@'
p2242
tp2243
Rp2244
ag3
(g7
S'\x9f=w\xe3wpH@'
p2245
tp2246
Rp2247
(lp2248
g3
(g7
S"\xaf\xb3\xe1\xea'\xec\xf4D"
p2249
tp2250
Rp2251
ag3
(g7
S'\x86\xb9vy\xaf\x98\xf3D'
p2252
tp2253
Rp2254
ag3
(g7
S'\xf4\xc8\xb6\x91\xab\x8c\xf3D'
p2255
tp2256
Rp2257
ag3
(g7
S'\xe2\xfa0\xdd\x15\x8a\xf3D'
p2258
tp2259
Rp2260
ag3
(g7
S'\xd1\xf0\xe8M\x81\x9b\xf2D'
p2261
tp2262
Rp2263
atp2264
sI66
((lp2265
F197.8432719707489
aF2.572638988494873
aF260.66291093826294
aF6.365448951721191
aF63.78491401672363
a(lp2266
g3
(g7
S'tWPat\xccH@'
p2267
tp2268
Rp2269
ag3
(g7
S'{\x12\xa5\xd0I\xcdJ@'
p2270
tp2271
Rp2272
ag3
(g7
S'\xd3\x19\x91\xe8\x05\xb0H@'
p2273
tp2274
Rp2275
ag3
(g7
S'\xa1\x97\x1f#\xa2\x98J@'
p2276
tp2277
Rp2278
ag3
(g7
S'\x97\xbf\x96\xf7\x8bVI@'
p2279
tp2280
Rp2281
ag3
(g7
S'lb#S\x11\x18I@'
p2282
tp2283
Rp2284
(lp2285
g3
(g7
S'\xa5\x9a\x1c\xc4I\xfe\x14E'
p2286
tp2287
Rp2288
ag3
(g7
S'\x89U\xf0H:\xf4\x14E'
p2289
tp2290
Rp2291
ag3
(g7
S'\x18\xb7ggwa\x13E'
p2292
tp2293
Rp2294
ag3
(g7
S'\xb8\xcb+\x15`^\x13E'
p2295
tp2296
Rp2297
ag3
(g7
S'[B\x07x\xc7+\x13E'
p2298
tp2299
Rp2300
atp2301
sI67
((lp2302
F425.40157318115234
aF38.60659694671631
aF43.31924796104431
aF262.2314500808716
aF256.7404429912567
a(lp2303
g3
(g7
S'\xdf\x8c\xe3\x93\xc5\xfeG@'
p2304
tp2305
Rp2306
ag3
(g7
S'\xb8\xd5\xb4\x04\xa98I@'
p2307
tp2308
Rp2309
ag3
(g7
S'\x06\xe7\xef\xf8k\x1bI@'
p2310
tp2311
Rp2312
ag3
(g7
S'\t;\x82w\x173H@'
p2313
tp2314
Rp2315
ag3
(g7
S'\xae\x8d\x96\xec\xa1;H@'
p2316
tp2317
Rp2318
ag3
(g7
S'\x158\xa2\xf8\x83\x8fH@'
p2319
tp2320
Rp2321
(lp2322
g3
(g7
S'\xfa\xb0\xf4\xbf\x94\xfb\xffD'
p2323
tp2324
Rp2325
ag3
(g7
S'R7\xd3\xa3\xe3\x98\xffD'
p2326
tp2327
Rp2328
ag3
(g7
S'\xee\xcc\xf10PL\xffD'
p2329
tp2330
Rp2331
ag3
(g7
S'8`\xd6\xeaE\xdd\xfdD'
p2332
tp2333
Rp2334
ag3
(g7
S'ZR\xffhI\x08\xfdD'
p2335
tp2336
Rp2337
atp2338
sI68
((lp2339
F407.6440689563751
aF223.57335901260376
aF304.19188594818115
aF18.67327308654785
aF44.59308195114136
a(lp2340
g3
(g7
S'\xebi\x0f\x18\xdbKJ@'
p2341
tp2342
Rp2343
ag3
(g7
S'B\xf8&\xae\x13\x9dJ@'
p2344
tp2345
Rp2346
ag3
(g7
S'\xfa4\xd6\xf6\x92wJ@'
p2347
tp2348
Rp2349
ag3
(g7
S'\x9c-\x1e\xab\xf2\xefK@'
p2350
tp2351
Rp2352
ag3
(g7
S'\xb7\xb9;\xe8\x8aZK@'
p2353
tp2354
Rp2355
ag3
(g7
S'\xe1\xde\xad\xb9\x99\xc2J@'
p2356
tp2357
Rp2358
(lp2359
g3
(g7
S'\xc7\xa0\x9b\x16\xe4XhE'
p2360
tp2361
Rp2362
ag3
(g7
S'\x1d\xbd\x96c \x99gE'
p2363
tp2364
Rp2365
ag3
(g7
S'\xc6\x10Xd\xb3\xfbfE'
p2366
tp2367
Rp2368
ag3
(g7
S'\x99\xfb\xb5:\xe6\xf6fE'
p2369
tp2370
Rp2371
ag3
(g7
S'D<\x01*H\xe6fE'
p2372
tp2373
Rp2374
atp2375
sI69
((lp2376
F132.50702595710754
aF20.35526180267334
aF1263.8593678474426
aF237.6796350479126
aF648.2757849693298
a(lp2377
g3
(g7
S'\xd4\x9a\x8a,\x02\xa9J@'
p2378
tp2379
Rp2380
ag3
(g7
S'\t\xf0\xf3\xef\x02\x95K@'
p2381
tp2382
Rp2383
ag3
(g7
S'\xf8b1`\xfe\x8aI@'
p2384
tp2385
Rp2386
ag3
(g7
S'\xb1g,_\x1a^J@'
p2387
tp2388
Rp2389
ag3
(g7
S'\xe8\xbd\xa4\xaed\xdaI@'
p2390
tp2391
Rp2392
ag3
(g7
S'\xc9\x96\xe6\x7fj\x94J@'
p2393
tp2394
Rp2395
(lp2396
g3
(g7
S'f3\x8c|\xabcaE'
p2397
tp2398
Rp2399
ag3
(g7
S'(p\x13\x1eI*aE'
p2400
tp2401
Rp2402
ag3
(g7
S'\xd5\x89w\x1f,\x07]E'
p2403
tp2404
Rp2405
ag3
(g7
S'\x026\x97\xb0{\xa9\\E'
p2406
tp2407
Rp2408
ag3
(g7
S'\x82\x92z\xd2\xb6\xec[E'
p2409
tp2410
Rp2411
atp2412
sI70
((lp2413
F225.93511509895325
aF80.99850702285767
aF390.34355092048645
aF165.27242493629456
aF28.623252153396606
a(lp2414
g3
(g7
S'L"\n\xb1X\x1cM@'
p2415
tp2416
Rp2417
ag3
(g7
S'\xce\x89\xe0\xf2\x19\xa0M@'
p2418
tp2419
Rp2420
ag3
(g7
S'\x80L)\xad|\xdfL@'
p2421
tp2422
Rp2423
ag3
(g7
S'\x17\x10Z>_TM@'
p2424
tp2425
Rp2426
ag3
(g7
S'\x7f\xd2\x9a\xd9\xae-N@'
p2427
tp2428
Rp2429
ag3
(g7
S'm\x96)\xa9hOM@'
p2430
tp2431
Rp2432
(lp2433
g3
(g7
S"\xa9'a\xf9\x1c\x1c\xddE"
p2434
tp2435
Rp2436
ag3
(g7
S'\xbb\x9d\x8d\xca\x9d\x80\xdcE'
p2437
tp2438
Rp2439
ag3
(g7
S'\x8dE\xbbn\x97\r\xdbE'
p2440
tp2441
Rp2442
ag3
(g7
S'^\xaf\xce&j\xb1\xdaE'
p2443
tp2444
Rp2445
ag3
(g7
S'Q`\xfem\x1b\xa3\xdaE'
p2446
tp2447
Rp2448
atp2449
sI71
((lp2450
F14.180901050567627
aF112.48667407035828
aF85.01124811172485
aF18.233964920043945
aF37.555643796920776
a(lp2451
g3
(g7
S'\xad\xa4;%A\xc8L@'
p2452
tp2453
Rp2454
ag3
(g7
S"gV'\xb7D\x91K@"
p2455
tp2456
Rp2457
ag3
(g7
S'Mm\xdf\xa7\x97\xc1K@'
p2458
tp2459
Rp2460
ag3
(g7
S'\x1d\x93\xf3\n\x08}L@'
p2461
tp2462
Rp2463
ag3
(g7
S'\xaa\x17YE` L@'
p2464
tp2465
Rp2466
ag3
(g7
S'\xab\xb9v\xcf\x14\xa1K@'
p2467
tp2468
Rp2469
(lp2470
g3
(g7
S'\xa4r0x\x8a\xff\x8aE'
p2471
tp2472
Rp2473
ag3
(g7
S'\xf1\xc8\xd7_\xd6\xde\x86E'
p2474
tp2475
Rp2476
ag3
(g7
S'F\xd7~\xfa1\x1d\x86E'
p2477
tp2478
Rp2479
ag3
(g7
S'^b\xffD)\x01\x86E'
p2480
tp2481
Rp2482
ag3
(g7
S'\x8d\x10\xa93\xde\xd1\x85E'
p2483
tp2484
Rp2485
atp2486
sI72
((lp2487
F330.7989399433136
aF325.3268539905548
aF326.1889419555664
aF769.1914019584656
aF784.0267009735107
a(lp2488
g3
(g7
S'#\x00$\x80j/L@'
p2489
tp2490
Rp2491
ag3
(g7
S'\xa0\x0e\x0cSz8L@'
p2492
tp2493
Rp2494
ag3
(g7
S'\x1a\xe4\xbbSM/L@'
p2495
tp2496
Rp2497
ag3
(g7
S'o\xf3q\xc9\x98\xcfK@'
p2498
tp2499
Rp2500
ag3
(g7
S'\xf3\x96K\x8e\xfb\xc7K@'
p2501
tp2502
Rp2503
ag3
(g7
S'\xcf\xd5i=n\x83L@'
p2504
tp2505
Rp2506
(lp2507
g3
(g7
S'\xedV\x00\xe6\xe3\xa3\xb6E'
p2508
tp2509
Rp2510
ag3
(g7
S'O\xf9\xa9SG\x80\xb5E'
p2511
tp2512
Rp2513
ag3
(g7
S'5\xbd[\xb3\x84\xd3\xb4E'
p2514
tp2515
Rp2516
ag3
(g7
S'\x7f\xe5\x1b\x8f\xb5\x00\xb4E'
p2517
tp2518
Rp2519
ag3
(g7
S's\xc9\xd5.!n\xb3E'
p2520
tp2521
Rp2522
atp2523
sI73
((lp2524
F283.8336749076843
aF14.647838115692139
aF147.49411010742188
aF67.17230296134949
aF770.0802190303802
a(lp2525
g3
(g7
S'd("\\\xf1\x8eL@'
p2526
tp2527
Rp2528
ag3
(g7
S'\tB\x0e\x9bB\xf6M@'
p2529
tp2530
Rp2531
ag3
(g7
S'\xe4\x19\xa5\xca\xff\xe3L@'
p2532
tp2533
Rp2534
ag3
(g7
S'\x92(\xfe\xf1/PM@'
p2535
tp2536
Rp2537
ag3
(g7
S'\xf3\xe3j\x00\xb1\rL@'
p2538
tp2539
Rp2540
ag3
(g7
S'<\xc9[:\x84\x9eL@'
p2541
tp2542
Rp2543
(lp2544
g3
(g7
S'\xc70\r\xe0\xe6\x01\xc4E'
p2545
tp2546
Rp2547
ag3
(g7
S'DA\xf93w\xf0\xc3E'
p2548
tp2549
Rp2550
ag3
(g7
S'\xa4s\x10\xd43o\xc3E'
p2551
tp2552
Rp2553
ag3
(g7
S'\x19&m\xd0sI\xc3E'
p2554
tp2555
Rp2556
ag3
(g7
S'\xef\x18\x13\xe2\xa3,\xc2E'
p2557
tp2558
Rp2559
atp2560
sI74
((lp2561
F268.3650498390198
aF338.8677890300751
aF174.64043498039246
aF44.531765937805176
aF385.4805850982666
a(lp2562
g3
(g7
S'\xd3\xf2\xd5\x86\xbc\xb0K@'
p2563
tp2564
Rp2565
ag3
(g7
S'#v\x91\xb8\x06\x91K@'
p2566
tp2567
Rp2568
ag3
(g7
S'8\x1b\x9722\xe4K@'
p2569
tp2570
Rp2571
ag3
(g7
S'\x0e\x94\x90\xed\xa3\xa5L@'
p2572
tp2573
Rp2574
ag3
(g7
S'E\x03F \xf3\x91K@'
p2575
tp2576
Rp2577
ag3
(g7
S'}\xb5\x96\xd6\x95\xa8K@'
p2578
tp2579
Rp2580
(lp2581
g3
(g7
S'\xa2fE\xaa\xdeR\x9bE'
p2582
tp2583
Rp2584
ag3
(g7
S'+\xd6\xa4\x98v\x8b\x99E'
p2585
tp2586
Rp2587
ag3
(g7
S';\xf8\xdcf\x9c\x14\x99E'
p2588
tp2589
Rp2590
ag3
(g7
S'm\xae\x11@\x04\xfb\x98E'
p2591
tp2592
Rp2593
ag3
(g7
S'\x9e\xfe\xaf\xca\xa1>\x98E'
p2594
tp2595
Rp2596
atp2597
sI75
((lp2598
F96.76629090309143
aF11.795929908752441
aF442.23104095458984
aF102.69413685798645
aF808.3611998558044
a(lp2599
g3
(g7
S'gM\x85\xc84\xeeL@'
p2600
tp2601
Rp2602
ag3
(g7
S'\xce4\xe7\xa8.\xfeM@'
p2603
tp2604
Rp2605
ag3
(g7
S'2\x9c\x19)b.L@'
p2606
tp2607
Rp2608
ag3
(g7
S'\xe6\xa5"\xf9\r\xe1L@'
p2609
tp2610
Rp2611
ag3
(g7
S's\x16\xf5\x0b\xb3\xe5K@'
p2612
tp2613
Rp2614
ag3
(g7
S'\xc5\xc44n\xc9)L@'
p2615
tp2616
Rp2617
(lp2618
g3
(g7
S'\x825\xd5\x97\xdd\xc3\xbeE'
p2619
tp2620
Rp2621
ag3
(g7
S'\x10\x01\x0f\xe7\x02N\xbeE'
p2622
tp2623
Rp2624
ag3
(g7
S'\x85V\x89\xb3\xf1\xfd\xb9E'
p2625
tp2626
Rp2627
ag3
(g7
S'"p9"\x8b\x93\xb9E'
p2628
tp2629
Rp2630
ag3
(g7
S'E\x9a\xe3\xc4V\xf1\xb7E'
p2631
tp2632
Rp2633
atp2634
sI76
((lp2635
F2759.099776029587
aF1337.2603449821472
aF4704.963463068008
aF1298.495824098587
aF28.156391143798828
a(lp2636
g3
(g7
S'\xddH>\xaci\xafK@'
p2637
tp2638
Rp2639
ag3
(g7
S'\xedR\x9e)\x82\x08L@'
p2640
tp2641
Rp2642
ag3
(g7
S'\x9b\xad\xffp\x93vK@'
p2643
tp2644
Rp2645
ag3
(g7
S'; \x1f[\xdb\xf2K@'
p2646
tp2647
Rp2648
ag3
(g7
S'v>\xdf\x15V\xffM@'
p2649
tp2650
Rp2651
ag3
(g7
S'H\x91\xebhxfL@'
p2652
tp2653
Rp2654
(lp2655
g3
(g7
S'\xdb14\x98\x15U\xc9E'
p2656
tp2657
Rp2658
ag3
(g7
S'z2u,\xccv\xc8E'
p2659
tp2660
Rp2661
ag3
(g7
S'\xf5\x17\xf2g\xd3\xf2\xc6E'
p2662
tp2663
Rp2664
ag3
(g7
S'>\x8b\xfa\x8f\xfd\x99\xc6E'
p2665
tp2666
Rp2667
ag3
(g7
S'\x0b\x8aS\x93.\x98\xc6E'
p2668
tp2669
Rp2670
atp2671
sI77
((lp2672
F2321.2835569381714
aF3358.319540977478
aF1690.0913169384003
aF388.0642628669739
aF182.98621702194214
a(lp2673
g3
(g7
S"\x9d\xf7\xb6\xac'\x8eM@"
p2674
tp2675
Rp2676
ag3
(g7
S'\xea\x9f\xcd\xe8\xd2^M@'
p2677
tp2678
Rp2679
ag3
(g7
S'iy/\x15E\xb0M@'
p2680
tp2681
Rp2682
ag3
(g7
S'\xbf\xc6\xb06\xabnN@'
p2683
tp2684
Rp2685
ag3
(g7
S'8\xad\xb5l(\xccN@'
p2686
tp2687
Rp2688
ag3
(g7
S'Mh#\xab\x9aHN@'
p2689
tp2690
Rp2691
(lp2692
g3
(g7
S'\xee\x0b\xd5x8\xf1 F'
p2693
tp2694
Rp2695
ag3
(g7
S'l\x18\x98\x05\x8b\x9f\x1fF'
p2696
tp2697
Rp2698
ag3
(g7
S': \xcf\xdc\xa9\xff\x1eF'
p2699
tp2700
Rp2701
ag3
(g7
S'~\x82\xcc\x13L\xe1\x1eF'
p2702
tp2703
Rp2704
ag3
(g7
S'\x15\xacIA.\xd3\x1eF'
p2705
tp2706
Rp2707
atp2708
sI78
((lp2709
F490.8261249065399
aF577.7831299304962
aF14.558940887451172
aF157.68566298484802
aF559.3441469669342
a(lp2710
g3
(g7
S';7\xd3\xda\x9b\rP@'
p2711
tp2712
Rp2713
ag3
(g7
S'\xaepO\x8c\xe0\x03P@'
p2714
tp2715
Rp2716
ag3
(g7
S'\r&\x08\x9fC\xedP@'
p2717
tp2718
Rp2719
ag3
(g7
S'\xaa\xbc\xdb\xfbaUP@'
p2720
tp2721
Rp2722
ag3
(g7
S'\xa8L\x15\xf7\xa4\xffO@'
p2723
tp2724
Rp2725
ag3
(g7
S'\xc6_\x0bB9\x11P@'
p2726
tp2727
Rp2728
(lp2729
g3
(g7
S'Z\r\x98\xe7\xd6`rF'
p2730
tp2731
Rp2732
ag3
(g7
S'o\xa5\xfa\xd5(uqF'
p2733
tp2734
Rp2735
ag3
(g7
S'\xe4\x83\xdb.\x89rqF'
p2736
tp2737
Rp2738
ag3
(g7
S'\xd9q\xf4\x06GKqF'
p2739
tp2740
Rp2741
ag3
(g7
S'\x97\xf3M\xe9\xae\xe4pF'
p2742
tp2743
Rp2744
atp2745
sI79
((lp2746
F983.851145029068
aF1664.996927022934
aF524.2272489070892
aF1449.0122599601746
aF1762.6076889038086
a(lp2747
g3
(g7
S'\x9b\x8b~\x11\x1c;O@'
p2748
tp2749
Rp2750
ag3
(g7
S'w\xb3\x8bv\xae\xfaN@'
p2751
tp2752
Rp2753
ag3
(g7
S'H)\x05q|\x91O@'
p2754
tp2755
Rp2756
ag3
(g7
S'\xe3\xed\x83>\x83\nO@'
p2757
tp2758
Rp2759
ag3
(g7
S'\xa0A\x00\x9f\xe2\xf1N@'
p2760
tp2761
Rp2762
ag3
(g7
S'\x99\x18Ip\xdesO@'
p2763
tp2764
Rp2765
(lp2766
g3
(g7
S'r\x05(\xddGS\\F'
p2767
tp2768
Rp2769
ag3
(g7
S'\xf7\xb0\x9f\xe1\x02\x1dZF'
p2770
tp2771
Rp2772
ag3
(g7
S'+\xcd)~\x0b\xc0YF'
p2773
tp2774
Rp2775
ag3
(g7
S'\xe8\xaa\xe7\xd6L\xf7XF'
p2776
tp2777
Rp2778
ag3
(g7
S'z\x18\x1e\x04aPXF'
p2779
tp2780
Rp2781
atp2782
sI80
((lp2783
F93.63615584373474
aF1535.5884001255035
aF208.3576328754425
aF1053.724503993988
aF1325.9143080711365
a(lp2784
g3
(g7
S'\x165Haw\x94P@'
p2785
tp2786
Rp2787
ag3
(g7
S'\x7f\xf1B\x17\xe8\xb4O@'
p2788
tp2789
Rp2790
ag3
(g7
S'\x84\xf5\xc9Z\xc5ZP@'
p2791
tp2792
Rp2793
ag3
(g7
S'^3\x81.\xaf\xe2O@'
p2794
tp2795
Rp2796
ag3
(g7
S'\xb8\x9b\xcc\xe7\x8e\xc1O@'
p2797
tp2798
Rp2799
ag3
(g7
S'\xaf8D\r\x11\x1dP@'
p2800
tp2801
Rp2802
(lp2803
g3
(g7
S'zr\x87\xa5\xa0\xa1~F'
p2804
tp2805
Rp2806
ag3
(g7
S'l62T;\x89xF'
p2807
tp2808
Rp2809
ag3
(g7
S'\x1aV\x82\x9byQxF'
p2810
tp2811
Rp2812
ag3
(g7
S',E\x12\xe71\x88wF'
p2813
tp2814
Rp2815
ag3
(g7
S'iG\xc8\xaf\xd3\xe4vF'
p2816
tp2817
Rp2818
atp2819
sI81
((lp2820
F1842.8811061382294
aF4310.795628070831
aF712.8098938465118
aF3094.796497106552
aF4644.93426990509
a(lp2821
g3
(g7
S't9X\xf4\x146O@'
p2822
tp2823
Rp2824
ag3
(g7
S'|\xc2{\xd8W\xc4N@'
p2825
tp2826
Rp2827
ag3
(g7
S'\xcb\x9c2\xdb\xcb\xa3O@'
p2828
tp2829
Rp2830
ag3
(g7
S'\x8a\x8f\xf8\xf5(\xecN@'
p2831
tp2832
Rp2833
ag3
(g7
S'\xe0^YU\xde\xb6N@'
p2834
tp2835
Rp2836
ag3
(g7
S'g\x1b?\xf9\x10\x91O@'
p2837
tp2838
Rp2839
(lp2840
g3
(g7
S'\xe4x\xe8\x8c\xfaoeF'
p2841
tp2842
Rp2843
ag3
(g7
S'\xf9\xb6\x94\x93\xa5rcF'
p2844
tp2845
Rp2846
ag3
(g7
S')\xa1\x7f~\xf5EcF'
p2847
tp2848
Rp2849
ag3
(g7
S'\x8d\x93\xd3\xc7.\xb3bF'
p2850
tp2851
Rp2852
ag3
(g7
S'\xa93<\xcb\xf8\x1dbF'
p2853
tp2854
Rp2855
atp2856
sI82
((lp2857
F386.56550908088684
aF3809.8756840229034
aF64.97383618354797
aF142.33019995689392
aF139.56700778007507
a(lp2858
g3
(g7
S'\xf0\xe0\xa3@\xe5\x87P@'
p2859
tp2860
Rp2861
ag3
(g7
S'"%/\xff\x9c\xe5O@'
p2862
tp2863
Rp2864
ag3
(g7
S',\x83v\x8d\x8c\xfbP@'
p2865
tp2866
Rp2867
ag3
(g7
S'\xdd\x18t\xe4\xbb\xc8P@'
p2868
tp2869
Rp2870
ag3
(g7
S'N\x88)\x05\x88\xc9P@'
p2871
tp2872
Rp2873
ag3
(g7
S'\xed8V*\x1d{P@'
p2874
tp2875
Rp2876
(lp2877
g3
(g7
S'\xe7\x88\xdc\x87\xb2\x87\x93F'
p2878
tp2879
Rp2880
ag3
(g7
S'\x1f <\xed\xe8\xfe\x90F'
p2881
tp2882
Rp2883
ag3
(g7
S'\x8cq\t\x86\xbf\xfb\x90F'
p2884
tp2885
Rp2886
ag3
(g7
S"\xee\xd8'*s\xf3\x90F"
p2887
tp2888
Rp2889
ag3
(g7
S'\x04\xa9\xe5\xc1\x07\xec\x90F'
p2890
tp2891
Rp2892
atp2893
sI83
((lp2894
F252.6838140487671
aF2680.769670009613
aF2407.0863308906555
aF1948.0806500911713
aF5045.493774175644
a(lp2895
g3
(g7
S'\x91\x11Q \x017P@'
p2896
tp2897
Rp2898
ag3
(g7
S'\xb3\xb1\xb4\xda\xc8@O@'
p2899
tp2900
Rp2901
ag3
(g7
S'\xcd\xce\x96\x97\xbfNO@'
p2902
tp2903
Rp2904
ag3
(g7
S'Rv1\xd0\x1bdO@'
p2905
tp2906
Rp2907
ag3
(g7
S'h\x90\xea9%\xe8N@'
p2908
tp2909
Rp2910
ag3
(g7
S'\xc7K\xb5.\x96\xaeO@'
p2911
tp2912
Rp2913
(lp2914
g3
(g7
S'\xe5\x1a\xfb\xa0\xb8spF'
p2915
tp2916
Rp2917
ag3
(g7
S'\xdfh\x0b\xc2%jkF'
p2918
tp2919
Rp2920
ag3
(g7
S'5P\x07\t\x025jF'
p2921
tp2922
Rp2923
ag3
(g7
S'-W\xd1F|\x91iF'
p2924
tp2925
Rp2926
ag3
(g7
S'4W\xf1\xa1\xc8\x82hF'
p2927
tp2928
Rp2929
atp2930
sI84
((lp2931
F493.8760859966278
aF2011.0787570476532
aF3.0314300060272217
aF4109.95591378212
aF2214.095237970352
a(lp2932
g3
(g7
S'\xe1;\xe2\x99<\x18P@'
p2933
tp2934
Rp2935
ag3
(g7
S'fQ"\xe7\xfbuO@'
p2936
tp2937
Rp2938
ag3
(g7
S'\x815\x11\xb2UCQ@'
p2939
tp2940
Rp2941
ag3
(g7
S'\x83\x14M\x89\xc3\x17O@'
p2942
tp2943
Rp2944
ag3
(g7
S'\xc1\x18\xe8Q[dO@'
p2945
tp2946
Rp2947
ag3
(g7
S'\x98O\xb1-\xa3\xbaO@'
p2948
tp2949
Rp2950
(lp2951
g3
(g7
S'\xc9\xa4I\xe5\xf1\x10qF'
p2952
tp2953
Rp2954
ag3
(g7
S'\xd4v\x99D\x12\x14nF'
p2955
tp2956
Rp2957
ag3
(g7
S'\x92\xa8\xb53\x8f\x13nF'
p2958
tp2959
Rp2960
ag3
(g7
S'\xac\xf7&\xbb\xa2\xe8kF'
p2961
tp2962
Rp2963
ag3
(g7
S'e\x9a`\x90\xa1KkF'
p2964
tp2965
Rp2966
atp2967
sI85
((lp2968
F1004.167464017868
aF1724.3110620975494
aF450.5410780906677
aF1169.2197201251984
aF135.52654504776
a(lp2969
g3
(g7
S'\xbd\xeaR\n\xf0xP@'
p2970
tp2971
Rp2972
ag3
(g7
S';M\xc5<\x97RP@'
p2973
tp2974
Rp2975
ag3
(g7
S')\x1b\xdc\xad\xf1\xa7P@'
p2976
tp2977
Rp2978
ag3
(g7
S'\x91#F+\xffmP@'
p2979
tp2980
Rp2981
ag3
(g7
S'\xa3\xfbq]\xca\xedP@'
p2982
tp2983
Rp2984
ag3
(g7
S'\xdb\xc4\x1c\xa7\x8b^P@'
p2985
tp2986
Rp2987
(lp2988
g3
(g7
S'\x06$\xa5;a\x17\xa5F'
p2989
tp2990
Rp2991
ag3
(g7
S'Q\x14V\xe0\x11N\xa3F'
p2992
tp2993
Rp2994
ag3
(g7
S'\x82\x06#\xbd\xb2\t\xa3F'
p2995
tp2996
Rp2997
ag3
(g7
S'\x15\xf6\x8e\x81\xe8\x86\xa2F'
p2998
tp2999
Rp3000
ag3
(g7
S'\xe2\xa0$\xac\x0e|\xa2F'
p3001
tp3002
Rp3003
atp3004
sI86
((lp3005
F1148.9547700881958
aF4039.230715036392
aF2192.7148780822754
aF9224.031588077545
aF7952.402354001999
a(lp3006
g3
(g7
S'\xb6\x08\x9ex\xef\xefO@'
p3007
tp3008
Rp3009
ag3
(g7
S'\xe0\xc7\xbf\xfeKOO@'
p3010
tp3011
Rp3012
ag3
(g7
S'|%Ut8\x98O@'
p3013
tp3014
Rp3015
ag3
(g7
S'l\x85\x14\xb7\xf6\xdfN@'
p3016
tp3017
Rp3018
ag3
(g7
S'[\xdf\xa9\x86^\xf4N@'
p3019
tp3020
Rp3021
ag3
(g7
S"Y'\t\x19WnO@"
p3022
tp3023
Rp3024
(lp3025
g3
(g7
S'_R\xc5\xd4w6zF'
p3026
tp3027
Rp3028
ag3
(g7
S'\xa6\n}\xa8\xbc-wF'
p3029
tp3030
Rp3031
ag3
(g7
S"\xf4\xc3\xea\xab'\x83vF"
p3032
tp3033
Rp3034
ag3
(g7
S'\xaeB\xfa\xac\x85\x10uF'
p3035
tp3036
Rp3037
ag3
(g7
S'\xb8"=\x8d\tjtF'
p3038
tp3039
Rp3040
atp3041
sI87
((lp3042
F1192.6846079826355
aF89.21656203269958
aF1527.9343268871307
aF2558.25887799263
aF6916.527446985245
a(lp3043
g3
(g7
S'\xd6p\x9a\x06N\x9bQ@'
p3044
tp3045
Rp3046
ag3
(g7
S'i\xca\x9ddc>R@'
p3047
tp3048
Rp3049
ag3
(g7
S'Q\x94\xf9A\x13\x88Q@'
p3050
tp3051
Rp3052
ag3
(g7
S'\xa7&\xc50xdQ@'
p3053
tp3054
Rp3055
ag3
(g7
S'\xc4\xa0\x19\x97\xea%Q@'
p3056
tp3057
Rp3058
ag3
(g7
S'J `hN\x97Q@'
p3059
tp3060
Rp3061
(lp3062
g3
(g7
S'V\x03\x97\xe41f\x0eG'
p3063
tp3064
Rp3065
ag3
(g7
S'\xf8\xc7#\x01/>\x0eG'
p3066
tp3067
Rp3068
ag3
(g7
S'`#\xff\xda\x81\x9a\x0cG'
p3069
tp3070
Rp3071
ag3
(g7
S'\xb1\xa3\xcd\xcf\xd6Y\x0bG'
p3072
tp3073
Rp3074
ag3
(g7
S'\xbf\x8e\t\x1a\x0c\xd4\tG'
p3075
tp3076
Rp3077
atp3078
sI88
((lp3079
F4901.984848022461
aF4674.478178024292
aF1611.3735599517822
aF14308.181743860245
aF1515.0929479599
a(lp3080
g3
(g7
S'\xe8\xa1\x94\x84K\x1dQ@'
p3081
tp3082
Rp3083
ag3
(g7
S'\xf3\xec\xa2\xb8S\x1fQ@'
p3084
tp3085
Rp3086
ag3
(g7
S'\xe1\xe3&\xbardQ@'
p3087
tp3088
Rp3089
ag3
(g7
S'\x11\x8f\xc4\rW\xd7P@'
p3090
tp3091
Rp3092
ag3
(g7
S'\xbdvZ9\x89eQ@'
p3093
tp3094
Rp3095
ag3
(g7
S'\x9bMndB6Q@'
p3096
tp3097
Rp3098
(lp3099
g3
(g7
S'\xc2\xb7p6\xdd\xfb\x00G'
p3100
tp3101
Rp3102
ag3
(g7
S'>\xa6\xdeV\x96#\x00G'
p3103
tp3104
Rp3105
ag3
(g7
S' \xfbM\x8c\xd1\xe4\xffF'
p3106
tp3107
Rp3108
ag3
(g7
S'\xc6p1\xab&\xf9\xfdF'
p3109
tp3110
Rp3111
ag3
(g7
S'\xdb\xf8\xd4\x9dD\xd8\xfdF'
p3112
tp3113
Rp3114
atp3115
sI89
((lp3116
F6834.445039987564
aF3937.961823940277
aF1438.4209020137787
aF820.6389970779419
aF800.5430080890656
a(lp3117
g3
(g7
S'\xa5\xd12=O\xf3Q@'
p3118
tp3119
Rp3120
ag3
(g7
S'\x03\xed\x11\xe2\x82\x16R@'
p3121
tp3122
Rp3123
ag3
(g7
S'\xaf\xc0[\x85\x0fWR@'
p3124
tp3125
Rp3126
ag3
(g7
S'\xea\x16+3\x95\x7fR@'
p3127
tp3128
Rp3129
ag3
(g7
S'l\x97\xf2\xe2\x9b~R@'
p3130
tp3131
Rp3132
ag3
(g7
S'\xbck\xbc0\xb0;R@'
p3133
tp3134
Rp3135
(lp3136
g3
(g7
S'?MkN\xf9\xd4SG'
p3137
tp3138
Rp3139
ag3
(g7
S'(\x818"e5SG'
p3140
tp3141
Rp3142
ag3
(g7
S'\xbf?T]"\x0bSG'
p3143
tp3144
Rp3145
ag3
(g7
S'\xdd\x10\xdb\x1b`\xf5RG'
p3146
tp3147
Rp3148
ag3
(g7
S'\xfa\xc7Q\xd6\xf6\xe0RG'
p3149
tp3150
Rp3151
atp3152
sI90
((lp3153
F1310.9648938179016
aF5465.234668016434
aF12437.116274118423
aF2586.7223131656647
aF6534.70284485817
a(lp3154
g3
(g7
S'+\xd6\x8d\xd0\xe6\xe2R@'
p3155
tp3156
Rp3157
ag3
(g7
S'\xe4P\x1b\xb5\xc0\x81R@'
p3158
tp3159
Rp3160
ag3
(g7
S"\xd5\xfe\x93k'LR@"
p3161
tp3162
Rp3163
ag3
(g7
S'\x1d\xfde\xb5\xed\xafR@'
p3164
tp3165
Rp3166
ag3
(g7
S'\x1c\x9a\x1e\xde\xe0uR@'
p3167
tp3168
Rp3169
ag3
(g7
S';`\xf1jG\xa7R@'
p3170
tp3171
Rp3172
(lp3173
g3
(g7
S'6w`KOC\x85G'
p3174
tp3175
Rp3176
ag3
(g7
S"\x86\xea\xc9'\xef\xbf\x82G"
p3177
tp3178
Rp3179
ag3
(g7
S'\x05\xadi\x0b\xd5B\x81G'
p3180
tp3181
Rp3182
ag3
(g7
S'\x9cb`\x0bt\x16\x81G'
p3183
tp3184
Rp3185
ag3
(g7
S'\xaa\x8fR\xb8L\xbd\x80G'
p3186
tp3187
Rp3188
atp3189
sI91
((lp3190
F20842.513139009476
aF5151.317809820175
aF4969.327648162842
aF4176.735915184021
aF747.7550179958344
a(lp3191
g3
(g7
S'-\xdfa\xf0\xcd\xc2Q@'
p3192
tp3193
Rp3194
ag3
(g7
S'\xd3\xb4\x96\x1e_\x1bR@'
p3195
tp3196
Rp3197
ag3
(g7
S'\x14\xf0\x1fh\xbf\x1eR@'
p3198
tp3199
Rp3200
ag3
(g7
S'hfU\x99/)R@'
p3201
tp3202
Rp3203
ag3
(g7
S'\x1et\x8c8\x01\x99R@'
p3204
tp3205
Rp3206
ag3
(g7
S'=\xe5\xfa\xa5\x1dJR@'
p3207
tp3208
Rp3209
(lp3210
g3
(g7
S'Sz\x07\x8d\x8fTXG'
p3211
tp3212
Rp3213
ag3
(g7
S'\x9f)\xb5\xf7p\xf2WG'
p3214
tp3215
Rp3216
ag3
(g7
S'\xfd\xfd2\x9a\x19\xa6WG'
p3217
tp3218
Rp3219
ag3
(g7
S'\xa0\xba\xdfx\xa8oWG'
p3220
tp3221
Rp3222
ag3
(g7
S'\x93\xc9&>FfWG'
p3223
tp3224
Rp3225
atp3226
sI92
((lp3227
F2574.3041138648987
aF1981.479506969452
aF1174.4251890182495
aF139.6811978816986
aF4651.137501955032
a(lp3228
g3
(g7
S'\x03;*\xbb\xbb\xcbQ@'
p3229
tp3230
Rp3231
ag3
(g7
S"\xdb\xf2^\xd7'\xd8Q@"
p3232
tp3233
Rp3234
ag3
(g7
S'*\xed\x88\x13\xea\xf5Q@'
p3235
tp3236
Rp3237
ag3
(g7
S'#q\xfeM\xb6\x82R@'
p3238
tp3239
Rp3240
ag3
(g7
S'\xcb\xca\xd9\x0c\x18\xa1Q@'
p3241
tp3242
Rp3243
ag3
(g7
S'9\xf7\xeeE~\xb9Q@'
p3244
tp3245
Rp3246
(lp3247
g3
(g7
S'\xb7\x07~\t7\x07.G'
p3248
tp3249
Rp3250
ag3
(g7
S'\xad\xd6\x16\x87V\x90,G'
p3251
tp3252
Rp3253
ag3
(g7
S'(p\x98TL\xf8+G'
p3254
tp3255
Rp3256
ag3
(g7
S'\xdd\xfe\x01\xb6\xb7\xe9+G'
p3257
tp3258
Rp3259
ag3
(g7
S'\xd0`HY\xe9\x8c*G'
p3260
tp3261
Rp3262
atp3263
s.