(dp0
I5
((lp1
F0.01024484634399414
aF0.0017189979553222656
aF0.001981019973754883
aF0.0019979476928710938
aF0.002496957778930664
a(lp2
cnumpy.core.multiarray
scalar
p3
(cnumpy
dtype
p4
(S'f8'
p5
I0
I1
tp6
Rp7
(I3
S'<'
p8
NNNI-1
I-1
I0
tp9
bS'\xed\xf4\xf8b\xf6\xeb\xe2\xbf'
p10
tp11
Rp12
ag3
(g7
S'\x9c4\x01\x90\xe6V\x07@'
p13
tp14
Rp15
ag3
(g7
S'\x10k\xc1\xfe\xaf\xf0\xf8?'
p16
tp17
Rp18
ag3
(g7
S'\xbd\xc3a\xcd\xe6\x05\xe4?'
p19
tp20
Rp21
ag3
(g7
S'\x9f\xc8\xa3\x1d\xbb\xbe\xd3\xbf'
p22
tp23
Rp24
aN(lp25
g3
(g7
S'\xeff(4\xd1\xff\x00@'
p26
tp27
Rp28
ag3
(g7
S'\x80\xe8\xf2\x98\xda\xe1\x00@'
p29
tp30
Rp31
ag3
(g7
S'W\x83U$m\x80\x00@'
p32
tp33
Rp34
ag3
(g7
S'L\xb6\x86}\xd9H\xff?'
p35
tp36
Rp37
ag3
(g7
S'\xd7\xecd]x\x8f\xfe?'
p38
tp39
Rp40
atp41
sI6
((lp42
F0.004843950271606445
aF0.002814054489135742
aF0.004300117492675781
aF0.003679037094116211
aF0.0049250125885009766
a(lp43
g3
(g7
S'Zh\x9c\xdc\x110\x02@'
p44
tp45
Rp46
ag3
(g7
S'\xf0\xeew5O$\r@'
p47
tp48
Rp49
ag3
(g7
S'd\xae\x01"\xc3\xa5\x0c@'
p50
tp51
Rp52
ag3
(g7
S'\xc12\xc9\x1b\xa8\x8b\x08@'
p53
tp54
Rp55
ag3
(g7
S'\xff\xfeXdli\x08@'
p56
tp57
Rp58
aN(lp59
g3
(g7
S'\x93\x164\xd0\x8a}E@'
p60
tp61
Rp62
ag3
(g7
S'\xfe\x8a\x9f\xa7\xae}D@'
p63
tp64
Rp65
ag3
(g7
S'\xee\xf6\xb5\xa8>?D@'
p66
tp67
Rp68
ag3
(g7
S'3\xf0\xcd\xb4\x07\xdeC@'
p69
tp70
Rp71
ag3
(g7
S'\xbc\xd3E\xe9\x07\xc6B@'
p72
tp73
Rp74
atp75
sI7
((lp76
F0.004309892654418945
aF0.003247976303100586
aF0.003620147705078125
aF0.002710103988647461
aF0.0061609745025634766
a(lp77
g3
(g7
S'@Y\xd1Qk\xfa\x07@'
p78
tp79
Rp80
ag3
(g7
S'\xfc\x9a\xc2\xc5\x87\xd1\x0c@'
p81
tp82
Rp83
ag3
(g7
S'Q\xdcJ\x06\x87\xe4\x07@'
p84
tp85
Rp86
ag3
(g7
S'\xce\xb5/\xdd\xc3\xa4 @'
p87
tp88
Rp89
ag3
(g7
S'\xcel|\x1eF\x14\t@'
p90
tp91
Rp92
aN(lp93
g3
(g7
S'\xb3\x03l\xa1uZW@'
p94
tp95
Rp96
ag3
(g7
S'\xcef{S.xV@'
p97
tp98
Rp99
ag3
(g7
S"'z\xdc\x0be\x8cU@"
p100
tp101
Rp102
ag3
(g7
S'0m\xd7\xc2\xd9\x84U@'
p103
tp104
Rp105
ag3
(g7
S'\xbed\xe7\x02\xeeGU@'
p106
tp107
Rp108
atp109
sI8
((lp110
F0.004518032073974609
aF0.00746607780456543
aF0.004089832305908203
aF0.0058650970458984375
aF0.004019021987915039
a(lp111
g3
(g7
S'aI#\x94,a\x1d@'
p112
tp113
Rp114
ag3
(g7
S'\x17;\x17u\x97b\x13@'
p115
tp116
Rp117
ag3
(g7
S'1\x12x*A\x17\x15@'
p118
tp119
Rp120
ag3
(g7
S'\x13\xc8\xed\t5I\x14@'
p121
tp122
Rp123
ag3
(g7
S'}OA\x15\xd3\x0c"@'
p124
tp125
Rp126
aN(lp127
g3
(g7
S'\xccX\x8bt\xca\x88y@'
p128
tp129
Rp130
ag3
(g7
S'\xae]\x13\x8eVfx@'
p131
tp132
Rp133
ag3
(g7
S'\x94\xdc}7\xbc`w@'
p134
tp135
Rp136
ag3
(g7
S'\xf5!|q\x8b\x01w@'
p137
tp138
Rp139
ag3
(g7
S'W\xd2N\r\x1arv@'
p140
tp141
Rp142
atp143
sI9
((lp144
F0.011755943298339844
aF0.009935855865478516
aF0.0047719478607177734
aF0.0064508914947509766
aF0.007977962493896484
a(lp145
g3
(g7
S']\xe1e\xc2m\xe6\x15@'
p146
tp147
Rp148
ag3
(g7
S'\xbd\xba\x8e\x11A\xe4\x12@'
p149
tp150
Rp151
ag3
(g7
S'\xa3<\xe7\t..\x1f@'
p152
tp153
Rp154
ag3
(g7
S'\xce\xd7\xde\x90(,\x12@'
p155
tp156
Rp157
ag3
(g7
S'!H\x02%wz\x16@'
p158
tp159
Rp160
aN(lp161
g3
(g7
S'\xd5s\x80\xc8\\}\x8b@'
p162
tp163
Rp164
ag3
(g7
S' \xda\xcd\x98\x11\xc1\x88@'
p165
tp166
Rp167
ag3
(g7
S'n\x9a\x9c\xab\x82h\x88@'
p168
tp169
Rp170
ag3
(g7
S'\x05\xc8\xc5\xd7P;\x88@'
p171
tp172
Rp173
ag3
(g7
S'\xfc\xd6a\x82e\x19\x88@'
p174
tp175
Rp176
atp177
sI10
((lp178
F0.007869958877563477
aF0.007136106491088867
aF0.006815910339355469
aF0.007495880126953125
aF0.010699033737182617
a(lp179
g3
(g7
S'`\x97\x9b\xef?\x1b!@'
p180
tp181
Rp182
ag3
(g7
S'\xd0Y\x91\xca\x91O\x1b@'
p183
tp184
Rp185
ag3
(g7
S'Ei,u\xf8\xae\x1f@'
p186
tp187
Rp188
ag3
(g7
S'q6[\xbc\x1f\xe6\x1c@'
p189
tp190
Rp191
ag3
(g7
S'\xf4x\xa9/\xba\x8a\x1b@'
p192
tp193
Rp194
aN(lp195
g3
(g7
S'\xa4\x03\rfSR\xb6@'
p196
tp197
Rp198
ag3
(g7
S'#\xb1\x95\x96w\x15\xb6@'
p199
tp200
Rp201
ag3
(g7
S'\xd0@Ye\xa5V\xb5@'
p202
tp203
Rp204
ag3
(g7
S'\xaf\xcbl\xd0e\xd2\xb4@'
p205
tp206
Rp207
ag3
(g7
S'\x02)\x04\x87\xc3\x0f\xb4@'
p208
tp209
Rp210
atp211
sI11
((lp212
F0.012809991836547852
aF0.011955976486206055
aF0.007819175720214844
aF0.0067980289459228516
aF0.01833200454711914
a(lp213
g3
(g7
S'Q\x04\x88\x82\xfdO%@'
p214
tp215
Rp216
ag3
(g7
S'\xa5\xac\xd2\xd1\x07\xc9"@'
p217
tp218
Rp219
ag3
(g7
S'\x08J\x18\xa8 \xb7)@'
p220
tp221
Rp222
ag3
(g7
S'z\xc0\x0c\xf7"\x02%@'
p223
tp224
Rp225
ag3
(g7
S'\xebh\xe3\x96\xba\xaa!@'
p226
tp227
Rp228
aN(lp229
g3
(g7
S'\x0c\xac\xed0\xd6\xce\xf2@'
p230
tp231
Rp232
ag3
(g7
S'x\x1c\x1b\x0b.\xa2\xf2@'
p233
tp234
Rp235
ag3
(g7
S"\x9aO'\xd3\xb7|\xf2@"
p236
tp237
Rp238
ag3
(g7
S'\xde}\xc4U(q\xf2@'
p239
tp240
Rp241
ag3
(g7
S'.\xb2\xc0v\x17h\xf2@'
p242
tp243
Rp244
atp245
sI12
((lp246
F0.0378727912902832
aF0.023375988006591797
aF0.009614944458007812
aF0.008443832397460938
aF0.06468009948730469
a(lp247
g3
(g7
S'\x99\x9b\x95\x11t\xe3$@'
p248
tp249
Rp250
ag3
(g7
S'{\xbc\x1c\xedeA$@'
p251
tp252
Rp253
ag3
(g7
S'\xd8Y\x91\x880m&@'
p254
tp255
Rp256
ag3
(g7
S"\x8eOB\xe9#\xbe'@"
p257
tp258
Rp259
ag3
(g7
S'8\\\xd7@nq"@'
p260
tp261
Rp262
aN(lp263
g3
(g7
S'0w\xce\x03nG\x07A'
p264
tp265
Rp266
ag3
(g7
S'\x87M;\\u\xc5\x06A'
p267
tp268
Rp269
ag3
(g7
S'\xee\xd4\xe3\xf8Er\x06A'
p270
tp271
Rp272
ag3
(g7
S'\xa7\xac>)\xd4a\x06A'
p273
tp274
Rp275
ag3
(g7
S"M'>H\x16\x06\x06A"
p276
tp277
Rp278
atp279
sI13
((lp280
F0.012572050094604492
aF0.01038503646850586
aF0.046462059020996094
aF0.009204864501953125
aF0.009962081909179688
a(lp281
g3
(g7
S'Q\xda.\x1b\xf0d,@'
p282
tp283
Rp284
ag3
(g7
S'\\\x92\x02\xe3\xd4\x87)@'
p285
tp286
Rp287
ag3
(g7
S'aN\x81\xe0HZ(@'
p288
tp289
Rp290
ag3
(g7
S'\x1a0\\\x92i#/@'
p291
tp292
Rp293
ag3
(g7
S'S\xf2\t\x1f`\xc7*@'
p294
tp295
Rp296
aN(lp297
g3
(g7
S'K3\x02\xd2J\x91FA'
p298
tp299
Rp300
ag3
(g7
S'/m&\xf4s\x8cFA'
p301
tp302
Rp303
ag3
(g7
S'U:\xbc\xa0\xef4EA'
p304
tp305
Rp306
ag3
(g7
S'\x1e\x1e\xad\xfb\xb41EA'
p307
tp308
Rp309
ag3
(g7
S'u\x90#=S(EA'
p310
tp311
Rp312
atp313
sI14
((lp314
F0.04768085479736328
aF0.014259099960327148
aF0.03285503387451172
aF0.029227018356323242
aF0.030559778213500977
a(lp315
g3
(g7
S'%@\x1e\x8b\x13\x85-@'
p316
tp317
Rp318
ag3
(g7
S'\xa9\xa6\xe4\x1b\xdd\x9a0@'
p319
tp320
Rp321
ag3
(g7
S'\xf7\x85\\\x10\x0f\x9a0@'
p322
tp323
Rp324
ag3
(g7
S'\xd2\xf63i\x17F0@'
p325
tp326
Rp327
ag3
(g7
S'O\xe7o\xe3\xef\xc3.@'
p328
tp329
Rp330
aN(lp331
g3
(g7
S'\xb8\x89\xb9\x02\x16\xf5\x81A'
p332
tp333
Rp334
ag3
(g7
S'\x03\xa95dN\xda\x81A'
p335
tp336
Rp337
ag3
(g7
S'-Y\xcf\xaa7k\x81A'
p338
tp339
Rp340
ag3
(g7
S'\xdd>\xc4\xf3\xa4Z\x81A'
p341
tp342
Rp343
ag3
(g7
S'\xe8Mw\x03+E\x81A'
p344
tp345
Rp346
atp347
sI15
((lp348
F0.021496057510375977
aF0.026996135711669922
aF0.013039827346801758
aF0.051310062408447266
aF0.017615795135498047
a(lp349
g3
(g7
S'\x81\xf3M\x9e\xe1\xd60@'
p350
tp351
Rp352
ag3
(g7
S'\xeb\x80\xfb.pf0@'
p353
tp354
Rp355
ag3
(g7
S'f\xb6\x90\x00:y1@'
p356
tp357
Rp358
ag3
(g7
S'\xcek3A\xec&.@'
p359
tp360
Rp361
ag3
(g7
S'Td\x98\xa6\xb1\xc4/@'
p362
tp363
Rp364
aN(lp365
g3
(g7
S'\xf5\xbc#\xd2n\xbe\x86A'
p366
tp367
Rp368
ag3
(g7
S'\xa1W\x1c\xf2\x81h\x86A'
p369
tp370
Rp371
ag3
(g7
S'\x8bk\xcc\xcf\x11\r\x86A'
p372
tp373
Rp374
ag3
(g7
S'\xa9\\z\xebt\xd0\x84A'
p375
tp376
Rp377
ag3
(g7
S'\xbcQ\xd1z\xbd\xa9\x84A'
p378
tp379
Rp380
atp381
sI16
((lp382
F0.015710115432739258
aF0.06744909286499023
aF0.11424398422241211
aF0.11648082733154297
aF0.05958294868469238
a(lp383
g3
(g7
S'\x7fu\xf6\xf4\xd2\xbd4@'
p384
tp385
Rp386
ag3
(g7
S'\xaf\xff\xec\x12\xd0d1@'
p387
tp388
Rp389
ag3
(g7
S'\x8c\xde\x7f\xa7j\x080@'
p390
tp391
Rp392
ag3
(g7
S'\xa3\xda\xb87\xb9x0@'
p393
tp394
Rp395
ag3
(g7
S'\x1b\xfc\xa8\x91}\x911@'
p396
tp397
Rp398
aN(lp399
g3
(g7
S"g\xd9'\xdd \x1c\xaeA"
p400
tp401
Rp402
ag3
(g7
S'\x99\xa6\xa2\x05\xa5\xae\xabA'
p403
tp404
Rp405
ag3
(g7
S'\x97\xb8!AV\x05\xabA'
p406
tp407
Rp408
ag3
(g7
S'jE\xd60\xf5\xc5\xaaA'
p409
tp410
Rp411
ag3
(g7
S'>\x95\xa8k\xcd\xb1\xaaA'
p412
tp413
Rp414
atp415
sI17
((lp416
F0.04473996162414551
aF0.023573875427246094
aF0.04088783264160156
aF0.016901016235351562
aF0.06786417961120605
a(lp417
g3
(g7
S'\xff\x8eU \x8a\xa16@'
p418
tp419
Rp420
ag3
(g7
S']wY\x11pb6@'
p421
tp422
Rp423
ag3
(g7
S'H2\xf5\xf8i\t6@'
p424
tp425
Rp426
ag3
(g7
S'\xb0\xd0\xc7\xaau\xa56@'
p427
tp428
Rp429
ag3
(g7
S'C\xfb\x96y\xbf\xe34@'
p430
tp431
Rp432
aN(lp433
g3
(g7
S'\xe2\xd9\xec,\xee\xaa\x07B'
p434
tp435
Rp436
ag3
(g7
S'\xb71\x15(\x7f\x8e\x07B'
p437
tp438
Rp439
ag3
(g7
S'{\x9d\xf3%\x13D\x07B'
p440
tp441
Rp442
ag3
(g7
S'\xf6e\n\xac\xe8\x1b\x07B'
p443
tp444
Rp445
ag3
(g7
S'F\x9eR\x92P\xf3\x06B'
p446
tp447
Rp448
atp449
sI18
((lp450
F0.019934892654418945
aF0.14264607429504395
aF0.0642859935760498
aF0.06397700309753418
aF0.04567980766296387
a(lp451
g3
(g7
S'/\x19,W\x9aA:@'
p452
tp453
Rp454
ag3
(g7
S'\xd2\xa1\xd3\x8beG5@'
p455
tp456
Rp457
ag3
(g7
S'p\x14/[\xd7i6@'
p458
tp459
Rp460
ag3
(g7
S'\xc4-\x82z/\xa66@'
p461
tp462
Rp463
ag3
(g7
S'\xa6\x93m\xb5\x93,8@'
p464
tp465
Rp466
aN(lp467
g3
(g7
S"~\xbd\xef\x95\x9az'B"
p468
tp469
Rp470
ag3
(g7
S"\x99P.\xd2'\x97&B"
p471
tp472
Rp473
ag3
(g7
S'\x18\x9c\xeb\xf25\x89&B'
p474
tp475
Rp476
ag3
(g7
S'\x82\x10\x00\xcd\xd6P&B'
p477
tp478
Rp479
ag3
(g7
S'>\xf0\x91\xef\x84\x1e&B'
p480
tp481
Rp482
atp483
sI19
((lp484
F0.03155994415283203
aF0.02927684783935547
aF0.06120705604553223
aF0.022435903549194336
aF0.06585192680358887
a(lp485
g3
(g7
S'\xde^\xcc\xdb\x9e\xed9@'
p486
tp487
Rp488
ag3
(g7
S'D\x9d\xc3\xe4\xd2\xd09@'
p489
tp490
Rp491
ag3
(g7
S'\xdc<\xf5vd\xd18@'
p492
tp493
Rp494
ag3
(g7
S'\xc2\x08\x9b2\rE:@'
p495
tp496
Rp497
ag3
(g7
S'\xacR\xd1\\.\xa38@'
p498
tp499
Rp500
aN(lp501
g3
(g7
S'\xd84^\xa4\xdd\x00VB'
p502
tp503
Rp504
ag3
(g7
S'\xdc\xeaV\xdeO\xa3UB'
p505
tp506
Rp507
ag3
(g7
S'\x1b\xe1\xfer\x8dKUB'
p508
tp509
Rp510
ag3
(g7
S'\xbft+E\xc6\x13UB'
p511
tp512
Rp513
ag3
(g7
S'[<\xcf1\x07\xb9TB'
p514
tp515
Rp516
atp517
sI20
((lp518
F0.024985074996948242
aF0.08434391021728516
aF0.04406309127807617
aF0.08250880241394043
aF0.03202009201049805
a(lp519
g3
(g7
S'\xf4Q\xac\x80\xefS>@'
p520
tp521
Rp522
ag3
(g7
S'qp\x03\x9f\x8a\xaa<@'
p523
tp524
Rp525
ag3
(g7
S'V^\xb6$\xf1\xa4<@'
p526
tp527
Rp528
ag3
(g7
S'\xd4\xf3\xf28\x8b\xe3<@'
p529
tp530
Rp531
ag3
(g7
S'\x11\xe9\xba1G\x96=@'
p532
tp533
Rp534
aN(lp535
g3
(g7
S'\x17Q\x8b\x1e!\xec\xb1B'
p536
tp537
Rp538
ag3
(g7
S'N_\xb6\xa4ia\xb1B'
p539
tp540
Rp541
ag3
(g7
S'\x1c\xa0n4\x88E\xb1B'
p542
tp543
Rp544
ag3
(g7
S'\xcf\xd7R\x8f|\x1a\xb1B'
p545
tp546
Rp547
ag3
(g7
S'\x06\xb6Yk\xa3\xfc\xb0B'
p548
tp549
Rp550
atp551
sI21
((lp552
F0.05647897720336914
aF0.02403092384338379
aF0.03455495834350586
aF0.09249401092529297
aF0.10636496543884277
a(lp553
g3
(g7
S'\xe3\xa4J@\x05\xe3>@'
p554
tp555
Rp556
ag3
(g7
S'\xf5y\x04$\xf9PA@'
p557
tp558
Rp559
ag3
(g7
S'\x1d\xf5\xfahq+?@'
p560
tp561
Rp562
ag3
(g7
S'\x86i1\x04\xcd\x88>@'
p563
tp564
Rp565
ag3
(g7
S'T\xfdeV\xfa\xad>@'
p566
tp567
Rp568
aN(lp569
g3
(g7
S'}\xba\x17e9\x11\xe1B'
p570
tp571
Rp572
ag3
(g7
S'%\xe4\t\x91\xa2\xf6\xe0B'
p573
tp574
Rp575
ag3
(g7
S'\xa6R\xca\x90\x05\xc1\xe0B'
p576
tp577
Rp578
ag3
(g7
S'z\x90\x12&v\x8c\xe0B'
p579
tp580
Rp581
ag3
(g7
S'c;\xfe\x18\x91h\xe0B'
p582
tp583
Rp584
atp585
sI22
((lp586
F0.11407113075256348
aF0.043881893157958984
aF0.08045601844787598
aF0.027469158172607422
aF0.04975605010986328
a(lp587
g3
(g7
S'+\x18\xa0s\xa7%@@'
p588
tp589
Rp590
ag3
(g7
S'Y\xc9$<\xeb\xe9@@'
p591
tp592
Rp593
ag3
(g7
S'\xa9P\x8e&0\xc5?@'
p594
tp595
Rp596
ag3
(g7
S'\xb4%\n\xbf@0A@'
p597
tp598
Rp599
ag3
(g7
S'\x00\x19\xf3Q\x06\xbeA@'
p600
tp601
Rp602
aN(lp603
g3
(g7
S'\xafH66E\xb5\x05C'
p604
tp605
Rp606
ag3
(g7
S']P\x93c\xd7x\x05C'
p607
tp608
Rp609
ag3
(g7
S'\xcd\x19)\x93\xf7n\x05C'
p610
tp611
Rp612
ag3
(g7
S'S\x01\xca\xeaif\x05C'
p613
tp614
Rp615
ag3
(g7
S'\x0e\x8ab\xa4!e\x05C'
p616
tp617
Rp618
atp619
sI23
((lp620
F0.406818151473999
aF0.10756397247314453
aF0.11490702629089355
aF0.028766155242919922
aF0.028881072998046875
a(lp621
g3
(g7
S'Z\xd0\x1b=\xa8l@@'
p622
tp623
Rp624
ag3
(g7
S'O\xd0q\x8a\xd78A@'
p625
tp626
Rp627
ag3
(g7
S'\x82\xec\x9f\x85g\x0eA@'
p628
tp629
Rp630
ag3
(g7
S';\xe5\xab\x037\xe9A@'
p631
tp632
Rp633
ag3
(g7
S'\xea\xce\x98\x7f\xc5\\B@'
p634
tp635
Rp636
aN(lp637
g3
(g7
S'\x9f\xe5\x96\x8b8\x824C'
p638
tp639
Rp640
ag3
(g7
S'\x8b\nd\x10\xaam4C'
p641
tp642
Rp643
ag3
(g7
S"'Z\x95Z\xb9?4C"
p644
tp645
Rp646
ag3
(g7
S'\xf6\xf4\xa7\xe2\xef>4C'
p647
tp648
Rp649
ag3
(g7
S'\x0e>\x1f\xecp=4C'
p650
tp651
Rp652
atp653
sI24
((lp654
F0.039234161376953125
aF0.1563107967376709
aF0.049678802490234375
aF0.033117055892944336
aF0.0906670093536377
a(lp655
g3
(g7
S'\x82\x82\xd9\x01o!C@'
p656
tp657
Rp658
ag3
(g7
S'\x14]d\x16\x0beB@'
p659
tp660
Rp661
ag3
(g7
S'\x1c\xe5\x8f\x9c,\xabC@'
p662
tp663
Rp664
ag3
(g7
S'\xfa\x8d\x16%\x08\xbcC@'
p665
tp666
Rp667
ag3
(g7
S'9\xcf\xa3Ee\xf9B@'
p668
tp669
Rp670
aN(lp671
g3
(g7
S'm\xf2360b\x80C'
p672
tp673
Rp674
ag3
(g7
S'\xecj\x0e\x13C&\x80C'
p675
tp676
Rp677
ag3
(g7
S'Oc\xb0\xc9b#\x80C'
p678
tp679
Rp680
ag3
(g7
S'\x9b\x0029j \x80C'
p681
tp682
Rp683
ag3
(g7
S'Z\xaeSW\xdd\xf6\x7fC'
p684
tp685
Rp686
atp687
sI25
((lp688
F0.12463617324829102
aF0.1224050521850586
aF0.047944068908691406
aF0.04068398475646973
aF0.07328104972839355
a(lp689
g3
(g7
S'\xe8\xc78&\xdaMC@'
p690
tp691
Rp692
ag3
(g7
S'j\x9b\xa5\x88\xee}C@'
p693
tp694
Rp695
ag3
(g7
S'\x874\xd7#Q\x91D@'
p696
tp697
Rp698
ag3
(g7
S'\xc1K\xe6\x19\x1c\xe2C@'
p699
tp700
Rp701
ag3
(g7
S'\xb3p\xa9"\xf0<D@'
p702
tp703
Rp704
aN(lp705
g3
(g7
S'\x87G\x8dl!\xb0\xa1C'
p706
tp707
Rp708
ag3
(g7
S'\x81\xcdE-\x82W\xa1C'
p709
tp710
Rp711
ag3
(g7
S'n\xcf\xd5\xc8\xfb6\xa1C'
p712
tp713
Rp714
ag3
(g7
S'\x90I\xc3{?\x1b\xa1C'
p715
tp716
Rp717
ag3
(g7
S'J\xb3\xc8\x97\x03\x1a\xa1C'
p718
tp719
Rp720
atp721
sI26
((lp722
F0.04130387306213379
aF0.12284708023071289
aF0.16139602661132812
aF0.23011302947998047
aF0.18720793724060059
a(lp723
g3
(g7
S'\xae\x97\xda@\xb5\xcdF@'
p724
tp725
Rp726
ag3
(g7
S'&:@\x9c\xd5BE@'
p727
tp728
Rp729
ag3
(g7
S'\x83\xd0\x98\xd6\x81\xb6E@'
p730
tp731
Rp732
ag3
(g7
S'\x18>\x90\xe7\xedWE@'
p733
tp734
Rp735
ag3
(g7
S'\x8f\xc1\\\xd0\x8f\xedE@'
p736
tp737
Rp738
aN(lp739
g3
(g7
S'\x9es\xbd\xf5K}\x0cD'
p740
tp741
Rp742
ag3
(g7
S'y\xb8\xf0\xa7\x0cD\x0cD'
p743
tp744
Rp745
ag3
(g7
S'\\n\xa2\xc5\xba\x0f\x0cD'
p746
tp747
Rp748
ag3
(g7
S'&\xd7\xcc\xe1@\xbb\x0bD'
p749
tp750
Rp751
ag3
(g7
S'\xc4\xa4\xb7GI\x87\x0bD'
p752
tp753
Rp754
atp755
sI27
((lp756
F0.08010005950927734
aF0.17770600318908691
aF0.07186102867126465
aF0.3175950050354004
aF0.17218708992004395
a(lp757
g3
(g7
S'\xbf\xfa\xb2\tU\xcfF@'
p758
tp759
Rp760
ag3
(g7
S'+\x91\x82\x07Q\xd6F@'
p761
tp762
Rp763
ag3
(g7
S'\xe3\x9a\xf6\xea\xb7"G@'
p764
tp765
Rp766
ag3
(g7
S'\x02a\xbd2bCF@'
p767
tp768
Rp769
ag3
(g7
S'9\xdd>\x178lF@'
p770
tp771
Rp772
aN(lp773
g3
(g7
S'\xeae\xef\x03=46D'
p774
tp775
Rp776
ag3
(g7
S'{T\x05`r\xda5D'
p777
tp778
Rp779
ag3
(g7
S'\x98\x1d\xb0\x8f\xf4\xce5D'
p780
tp781
Rp782
ag3
(g7
S'\xd5L\xeb\x1fW\x8e5D'
p783
tp784
Rp785
ag3
(g7
S'?\x7f\x00\xc0\xce\x865D'
p786
tp787
Rp788
atp789
sI28
((lp790
F0.46547794342041016
aF0.08840608596801758
aF0.04801487922668457
aF0.11272120475769043
aF0.22336792945861816
a(lp791
g3
(g7
S'\xde\x80\xb4W\xee~G@'
p792
tp793
Rp794
ag3
(g7
S']\xbf8\x10\x15vH@'
p795
tp796
Rp797
ag3
(g7
S'\x0f\\Sy-\xb1H@'
p798
tp799
Rp800
ag3
(g7
S'.v5\n\x96\x1fH@'
p801
tp802
Rp803
ag3
(g7
S'o\x87\x18\xc9\x99\xbaG@'
p804
tp805
Rp806
aN(lp807
g3
(g7
S'\x9fj\xc4\xf7p\xaclD'
p808
tp809
Rp810
ag3
(g7
S'\x08\xc85\x98\xb8\xa6lD'
p811
tp812
Rp813
ag3
(g7
S'\x1c\x0fL\xdb\xaa\xa4lD'
p814
tp815
Rp816
ag3
(g7
S'\xa4\xf6\x1f\x19\x97\x88lD'
p817
tp818
Rp819
ag3
(g7
S'\x8b\x8dw<bulD'
p820
tp821
Rp822
atp823
sI29
((lp824
F0.07735800743103027
aF0.04945206642150879
aF0.17596983909606934
aF0.47510504722595215
aF0.21328091621398926
a(lp825
g3
(g7
S'>\x1d\xb3\xf9\x8e\xbcJ@'
p826
tp827
Rp828
ag3
(g7
S'\x89\xab\xdcHS\x8cJ@'
p829
tp830
Rp831
ag3
(g7
S'\xe0\xa2\xc5>\x17CI@'
p832
tp833
Rp834
ag3
(g7
S'^ \\\x91\x01\x15I@'
p835
tp836
Rp837
ag3
(g7
S'\xfb\x89\xcc\x87.{I@'
p838
tp839
Rp840
aN(lp841
g3
(g7
S'\xdbqki\xd3\x00\xbeD'
p842
tp843
Rp844
ag3
(g7
S'\xdb\xa6w}\x8e\x00\xbeD'
p845
tp846
Rp847
ag3
(g7
S"\x97'\x00B\xf6\x9c\xbdD"
p848
tp849
Rp850
ag3
(g7
S'\xbe-\xd0I\xaf\x02\xbdD'
p851
tp852
Rp853
ag3
(g7
S'\xa5\x87!9`\xca\xbcD'
p854
tp855
Rp856
atp857
sI30
((lp858
F0.3713409900665283
aF0.22475218772888184
aF0.19441795349121094
aF0.20072102546691895
aF0.05727100372314453
a(lp859
g3
(g7
S'4\xech=\x8e\xfcI@'
p860
tp861
Rp862
ag3
(g7
S'\xdd\x19\x19\x8f\x0f\x0fJ@'
p863
tp864
Rp865
ag3
(g7
S"\xa3\x10\xc6'\xa6KJ@"
p866
tp867
Rp868
ag3
(g7
S't\x8b\x86\xa1&;J@'
p869
tp870
Rp871
ag3
(g7
S'\x1f\xd3\xd9\x13\t\x87K@'
p872
tp873
Rp874
aN(lp875
g3
(g7
S'\xc7\xebE\x1f\xe9Y\xe4D'
p876
tp877
Rp878
ag3
(g7
S'\x9c)\xfb\xa7\x0f2\xe4D'
p879
tp880
Rp881
ag3
(g7
S'\xeb\xf0\xda\x98\x81\x12\xe4D'
p882
tp883
Rp884
ag3
(g7
S'v\xe3\x10\t\x96\xef\xe3D'
p885
tp886
Rp887
ag3
(g7
S'\x98\xb9\xa9\xa7\x15\xed\xe3D'
p888
tp889
Rp890
atp891
sI31
((lp892
F1.1373178958892822
aF0.05890488624572754
aF0.313554048538208
aF0.2155780792236328
aF0.19404292106628418
a(lp893
g3
(g7
S'\xa8TcA\xac\xcfJ@'
p894
tp895
Rp896
ag3
(g7
S'}\x8c^\xb2\x82\x88L@'
p897
tp898
Rp899
ag3
(g7
S'\xf7\xec\x02\xfa\x8b:K@'
p900
tp901
Rp902
ag3
(g7
S'\xbb\xc9\x9d\xd1AWL@'
p903
tp904
Rp905
ag3
(g7
S'\x7fO\xe1\x1e\xe8\x07L@'
p906
tp907
Rp908
aN(lp909
g3
(g7
S'\xb1XtA\xe2.\x1fE'
p910
tp911
Rp912
ag3
(g7
S'>\x8f\xcau\xae-\x1fE'
p913
tp914
Rp915
ag3
(g7
S'\xae\x10\xfd\x19e\xf9\x1eE'
p916
tp917
Rp918
ag3
(g7
S'\x93\xccL\xe2y\xe5\x1eE'
p919
tp920
Rp921
ag3
(g7
S'\x1c\xf4+4\x8a\xd5\x1eE'
p922
tp923
Rp924
atp925
sI32
((lp926
F0.3901638984680176
aF0.06382083892822266
aF0.06623983383178711
aF0.06622719764709473
aF0.7811839580535889
a(lp927
g3
(g7
S'\xef\xa9\x90\xa6=mM@'
p928
tp929
Rp930
ag3
(g7
S'\xd2\x16\xe5\xf9\xbb\xebM@'
p931
tp932
Rp933
ag3
(g7
S'\xa8\x1b\xac\xfd\xd37O@'
p934
tp935
Rp936
ag3
(g7
S'\x0f\x8d\x8dQneO@'
p937
tp938
Rp939
ag3
(g7
S'\xb6\xa0\x7f\x89\x08\xc5L@'
p940
tp941
Rp942
aN(lp943
g3
(g7
S'\xe7\nEZ6?nE'
p944
tp945
Rp946
ag3
(g7
S'\x8dS\xaa\xbfH>nE'
p947
tp948
Rp949
ag3
(g7
S'Ac;#A;nE'
p950
tp951
Rp952
ag3
(g7
S'>\x05\xe0\x1d\xf6+nE'
p953
tp954
Rp955
ag3
(g7
S'"\xa4X\xc8\xe1\x9emE'
p956
tp957
Rp958
atp959
sI33
((lp960
F0.13363981246948242
aF0.12900710105895996
aF0.13928699493408203
aF0.2530338764190674
aF0.24107003211975098
a(lp961
g3
(g7
S'\xf8aIM\x8b\xe5O@'
p962
tp963
Rp964
ag3
(g7
S'\x94As\x8c\xed\xd3O@'
p965
tp966
Rp967
ag3
(g7
S'P\x0c=\xae\xa8\xb6O@'
p968
tp969
Rp970
ag3
(g7
S'b1 \x19\xc2PO@'
p971
tp972
Rp973
ag3
(g7
S'\x9a=\x16\xaf\xc3UO@'
p974
tp975
Rp976
aN(lp977
g3
(g7
S'\xca#\xff\r\xf2\\\xbdE'
p978
tp979
Rp980
ag3
(g7
S"K\xcf'1\xc7<\xbdE"
p981
tp982
Rp983
ag3
(g7
S'\xfc9\xe8\x93H\x19\xbdE'
p984
tp985
Rp986
ag3
(g7
S'%\xafw\x87\x0c\xf6\xbcE'
p987
tp988
Rp989
ag3
(g7
S'\x00\xe4\xb2\xe1R\xc0\xbcE'
p990
tp991
Rp992
atp993
sI34
((lp994
F0.35502099990844727
aF0.15088415145874023
aF1.4569859504699707
aF0.07555198669433594
aF0.24443888664245605
a(lp995
g3
(g7
S'\xaf;:\x86\x1fLP@'
p996
tp997
Rp998
ag3
(g7
S'\xc6\xd8ZU\xa2tP@'
p999
tp1000
Rp1001
ag3
(g7
S'\xac\xea3\xf9\xf3\x95O@'
p1002
tp1003
Rp1004
ag3
(g7
S'\xe4\x15\xb2%A\xccP@'
p1005
tp1006
Rp1007
ag3
(g7
S'\xaa:\xea\t+\x7fP@'
p1008
tp1009
Rp1010
aN(lp1011
g3
(g7
S'\xd1\xab\xf3X.\xab\xfdE'
p1012
tp1013
Rp1014
ag3
(g7
S'A\xf9\xc8\x86\x1e\xa7\xfdE'
p1015
tp1016
Rp1017
ag3
(g7
S'\xa7e\xe5\x8b\xf78\xfdE'
p1018
tp1019
Rp1020
ag3
(g7
S'\xf2\xc5\x9bm\xdd7\xfdE'
p1021
tp1022
Rp1023
ag3
(g7
S'(\x02TJS/\xfdE'
p1024
tp1025
Rp1026
atp1027
sI35
((lp1028
F0.08933401107788086
aF0.08300900459289551
aF0.4674949645996094
aF0.2675800323486328
aF0.51261305809021
a(lp1029
g3
(g7
S'\xd4\x9cA\xc8\xc3\xe1P@'
p1030
tp1031
Rp1032
ag3
(g7
S'\x17*Z\xd5\x9a\x88Q@'
p1033
tp1034
Rp1035
ag3
(g7
S'\xa0\x93ll\x85\xacP@'
p1036
tp1037
Rp1038
ag3
(g7
S'\x9f\x19\xf8,B\x9eP@'
p1039
tp1040
Rp1041
ag3
(g7
S'\x0f\xb5\xf7N\xb1TP@'
p1042
tp1043
Rp1044
aN(lp1045
g3
(g7
S'\xd6\xb8\xe6\x90\xd8\xf0\x1eF'
p1046
tp1047
Rp1048
ag3
(g7
S"Ca'\x18T\xe0\x1eF"
p1049
tp1050
Rp1051
ag3
(g7
S'\xae\x07[\xcew~\x1eF'
p1052
tp1053
Rp1054
ag3
(g7
S':\x8d\xc2"\x7fS\x1eF'
p1055
tp1056
Rp1057
ag3
(g7
S'\xbe\xe4&\xa2\x0f+\x1eF'
p1058
tp1059
Rp1060
atp1061
sI36
((lp1062
F1.3235280513763428
aF0.26199889183044434
aF0.4461338520050049
aF0.8039510250091553
aF0.6124329566955566
a(lp1063
g3
(g7
S'.\x04f\xac\x92\x12Q@'
p1064
tp1065
Rp1066
ag3
(g7
S"\x9f\xbfLy'\x9eQ@"
p1067
tp1068
Rp1069
ag3
(g7
S'z2\xa0\x92VGQ@'
p1070
tp1071
Rp1072
ag3
(g7
S'\xe9\xee\x0b\x1c\x86+Q@'
p1073
tp1074
Rp1075
ag3
(g7
S'!g\xaf\x95\xa55Q@'
p1076
tp1077
Rp1078
aN(lp1079
g3
(g7
S'&\xdaI))\xa3oF'
p1080
tp1081
Rp1082
ag3
(g7
S'V\xfe\x01\x98=\xa0oF'
p1083
tp1084
Rp1085
ag3
(g7
S'\xfa\x8b\xda\x01.roF'
p1086
tp1087
Rp1088
ag3
(g7
S'R\xe5Vt6^oF'
p1089
tp1090
Rp1091
ag3
(g7
S'\xbfX^\x07\xc7RoF'
p1092
tp1093
Rp1094
atp1095
sI37
((lp1096
F0.25357604026794434
aF0.27509307861328125
aF0.2647230625152588
aF0.3440670967102051
aF0.41637206077575684
a(lp1097
g3
(g7
S'j}dUf\x8dR@'
p1098
tp1099
Rp1100
ag3
(g7
S'\xcb\xfb8\x94\xbc\x81R@'
p1101
tp1102
Rp1103
ag3
(g7
S'\x96Bx(\xf8\xcdR@'
p1104
tp1105
Rp1106
ag3
(g7
S'E\xd4)M\x97hR@'
p1107
tp1108
Rp1109
ag3
(g7
S'0\xfc1A\xc1UR@'
p1110
tp1111
Rp1112
aN(lp1113
g3
(g7
S'.\rdw\x14}\xb6F'
p1114
tp1115
Rp1116
ag3
(g7
S'\x18K16ab\xb6F'
p1117
tp1118
Rp1119
ag3
(g7
S'X\xde(\x99\xb9\\\xb6F'
p1120
tp1121
Rp1122
ag3
(g7
S';\x82\x0b\x1f6N\xb6F'
p1123
tp1124
Rp1125
ag3
(g7
S'\x1d:\xd6\x02\xb0A\xb6F'
p1126
tp1127
Rp1128
atp1129
sI38
((lp1130
F0.744002103805542
aF0.10507583618164062
aF0.5065169334411621
aF0.7683520317077637
aF1.302314043045044
a(lp1131
g3
(g7
S'\xbb\x0f}\xfbN\xa5R@'
p1132
tp1133
Rp1134
ag3
(g7
S'\x1c\xf6\xb7\xa9\x9fRS@'
p1135
tp1136
Rp1137
ag3
(g7
S'\x87s\xac\x7f\x82\xdeR@'
p1138
tp1139
Rp1140
ag3
(g7
S'o@CZc\xb5R@'
p1141
tp1142
Rp1143
ag3
(g7
S')\x0cn\xc7\xfd\x97R@'
p1144
tp1145
Rp1146
aN(lp1147
g3
(g7
S'/\xa2\x9e\xf1\x99\xbb\xf2F'
p1148
tp1149
Rp1150
ag3
(g7
S'\x01\x05k\xd8\xd1\xb2\xf2F'
p1151
tp1152
Rp1153
ag3
(g7
S"'\xd7\x8e\xd4#\x93\xf2F"
p1154
tp1155
Rp1156
ag3
(g7
S'\xb6\xb5\xc2\xa7\x80v\xf2F'
p1157
tp1158
Rp1159
ag3
(g7
S'\xd1V\xb5\xd4\xabY\xf2F'
p1160
tp1161
Rp1162
atp1163
sI39
((lp1164
F1.1727550029754639
aF0.3201429843902588
aF0.24621891975402832
aF0.31171298027038574
aF0.32848596572875977
a(lp1165
g3
(g7
S'\x13\\\xfc\xeb\xa3}S@'
p1166
tp1167
Rp1168
ag3
(g7
S'\x03\xe3\xe9\xc2F\x9bS@'
p1169
tp1170
Rp1171
ag3
(g7
S'\x12\xc6;3\x0e{S@'
p1172
tp1173
Rp1174
ag3
(g7
S'hm!F\xdb\xe0S@'
p1175
tp1176
Rp1177
ag3
(g7
S'\x03\xba\xee\xd3\x84\xc2S@'
p1178
tp1179
Rp1180
aN(lp1181
g3
(g7
S'\xda#\xf4M\xb2X2G'
p1182
tp1183
Rp1184
ag3
(g7
S'\xf3\x8c\xd1\x92jS2G'
p1185
tp1186
Rp1187
ag3
(g7
S'3\x10Z\xec\xd3J2G'
p1188
tp1189
Rp1190
ag3
(g7
S'\x9c\xd5x\x81\xfb72G'
p1191
tp1192
Rp1193
ag3
(g7
S'\xc2\xd3y\xf2(-2G'
p1194
tp1195
Rp1196
atp1197
sI40
((lp1198
F0.2773289680480957
aF2.156054973602295
aF0.25322794914245605
aF0.1177070140838623
aF0.3473050594329834
a(lp1199
g3
(g7
S'\xabA-\xda7tT@'
p1200
tp1201
Rp1202
ag3
(g7
S'\x98\xcfi\xe5Z\xdbS@'
p1203
tp1204
Rp1205
ag3
(g7
S'\xd4\x00g(\x80\xc5T@'
p1206
tp1207
Rp1208
ag3
(g7
S'\xe3\x1d\x94\xaf \xafT@'
p1209
tp1210
Rp1211
ag3
(g7
S'\xe4\x01\x1d\xd2\xb2\x95T@'
p1212
tp1213
Rp1214
aN(lp1215
g3
(g7
S'{\xc6\xb6H\xbf\xa9{G'
p1216
tp1217
Rp1218
ag3
(g7
S'\xcf5$Z\xa2F{G'
p1219
tp1220
Rp1221
ag3
(g7
S'\x96\xf9\xad\xf1\x9fB{G'
p1222
tp1223
Rp1224
ag3
(g7
S'`\xdd/\x02&B{G'
p1225
tp1226
Rp1227
ag3
(g7
S'\x8a\x17\xea`~0{G'
p1228
tp1229
Rp1230
atp1231
sI41
((lp1232
F0.886328935623169
aF0.23383402824401855
aF0.12540102005004883
aF0.6841189861297607
aF1.048149824142456
a(lp1233
g3
(g7
S'\xbd\xdb\xc3\x9b\x1b\x06U@'
p1234
tp1235
Rp1236
ag3
(g7
S'\x1e\x8d\xdcz\xe7vU@'
p1237
tp1238
Rp1239
ag3
(g7
S"'\xa8m-|\xadU@"
p1240
tp1241
Rp1242
ag3
(g7
S'\x9ci"\x87G\x02U@'
p1243
tp1244
Rp1245
ag3
(g7
S'k\x1a\xa4\xa9\xe3\xfbT@'
p1246
tp1247
Rp1248
aN(lp1249
g3
(g7
S'\xe6\x8e\r\xce\xb9\x82\xc3G'
p1250
tp1251
Rp1252
ag3
(g7
S'\xf3l\xbb\xdchv\xc3G'
p1253
tp1254
Rp1255
ag3
(g7
S'\xaa\xf0z\xda\x1bv\xc3G'
p1256
tp1257
Rp1258
ag3
(g7
S'\x87F \xd31`\xc3G'
p1259
tp1260
Rp1261
ag3
(g7
S'&\xa0#\xfa\xa88\xc3G'
p1262
tp1263
Rp1264
atp1265
sI42
((lp1266
F0.34211015701293945
aF0.31196117401123047
aF1.533046007156372
aF1.2237060070037842
aF0.4502110481262207
a(lp1267
g3
(g7
S'\x9b\x11\x1d\x16o\xf7U@'
p1268
tp1269
Rp1270
ag3
(g7
S'\xdf\x94\x1b\xcaZ\xe0U@'
p1271
tp1272
Rp1273
ag3
(g7
S'\x14\xed\xbe(=\x9dU@'
p1274
tp1275
Rp1276
ag3
(g7
S'fi\x0b\x98C\xbcU@'
p1277
tp1278
Rp1279
ag3
(g7
S'\x94u:@\xa8\xe9U@'
p1280
tp1281
Rp1282
aN(lp1283
g3
(g7
S'3`\xba#Ij\x0bH'
p1284
tp1285
Rp1286
ag3
(g7
S'\xd4\xe00u\x86d\x0bH'
p1287
tp1288
Rp1289
ag3
(g7
S'\xccGc\x80\x846\x0bH'
p1290
tp1291
Rp1292
ag3
(g7
S'\xf4\xfco\x1a\x97\x0b\x0bH'
p1293
tp1294
Rp1295
ag3
(g7
S'+\xc6\x9fz^\x00\x0bH'
p1296
tp1297
Rp1298
atp1299
sI43
((lp1300
F0.5469748973846436
aF0.28995680809020996
aF0.2878241539001465
aF1.0214829444885254
aF0.45609402656555176
a(lp1301
g3
(g7
S'\xa3\x96\xe1\xad*\xbcV@'
p1302
tp1303
Rp1304
ag3
(g7
S'"\xd2\x83\xfbn\xfbV@'
p1305
tp1306
Rp1307
ag3
(g7
S'\xb8\xc0=\xa3\xdb\xc7V@'
p1308
tp1309
Rp1310
ag3
(g7
S'l\x80,RB\x9aV@'
p1311
tp1312
Rp1313
ag3
(g7
S'\xc4e\xcc8\x98\x86V@'
p1314
tp1315
Rp1316
aN(lp1317
g3
(g7
S'#\xf4g\xa14\xf3QH'
p1318
tp1319
Rp1320
ag3
(g7
S'\xe6\xc7\x8a\xb2\x1c\xe9QH'
p1321
tp1322
Rp1323
ag3
(g7
S'cx\xb8\x0e"\xe3QH'
p1324
tp1325
Rp1326
ag3
(g7
S'\x0fx\x1by\x96\xc9QH'
p1327
tp1328
Rp1329
ag3
(g7
S"\xee'\xdf\xe2\x8c\xbcQH"
p1330
tp1331
Rp1332
atp1333
sI44
((lp1334
F0.6381888389587402
aF0.19237208366394043
aF0.4451899528503418
aF1.7634761333465576
aF0.34571385383605957
a(lp1335
g3
(g7
S'\x8f`?\xaf\x16\xb9W@'
p1336
tp1337
Rp1338
ag3
(g7
S'\xb251m\x1a\x01X@'
p1339
tp1340
Rp1341
ag3
(g7
S'\xcdmx\x9a-\xf2W@'
p1342
tp1343
Rp1344
ag3
(g7
S'\xe4K\x96\n\xfbrW@'
p1345
tp1346
Rp1347
ag3
(g7
S'7\x06\x86\x8c0\xbfW@'
p1348
tp1349
Rp1350
aN(lp1351
g3
(g7
S'PXhR\x90\x90\xb4H'
p1352
tp1353
Rp1354
ag3
(g7
S'\x19\xeb\xba\x99"\x8e\xb4H'
p1355
tp1356
Rp1357
ag3
(g7
S'\xe4$-\xd7\x0f~\xb4H'
p1358
tp1359
Rp1360
ag3
(g7
S'\xc9\t\xd5\x1b\xd9\\\xb4H'
p1361
tp1362
Rp1363
ag3
(g7
S'x\xb7\xabL\xa3U\xb4H'
p1364
tp1365
Rp1366
atp1367
sI45
((lp1368
F0.603295087814331
aF1.8027801513671875
aF0.886976957321167
aF0.41063380241394043
aF0.1712350845336914
a(lp1369
g3
(g7
S'\x87\x8b\xff\xe3\xa1\xa1X@'
p1370
tp1371
Rp1372
ag3
(g7
S't\x9f\x1c\xa1:EX@'
p1373
tp1374
Rp1375
ag3
(g7
S'\x06Ze\xc9E\xceX@'
p1376
tp1377
Rp1378
ag3
(g7
S'\xb4\x9c\xe1\xe1W\x9dX@'
p1379
tp1380
Rp1381
ag3
(g7
S'\xf3\xc7(\xea\xc5\x10Y@'
p1382
tp1383
Rp1384
aN(lp1385
g3
(g7
S'\x1dC\xeb\x9b\xe1\xc1\xf6H'
p1386
tp1387
Rp1388
ag3
(g7
S'\xca\x97\xfb\xf8Y\x94\xf6H'
p1389
tp1390
Rp1391
ag3
(g7
S'\x10\xad\x983\xca\x92\xf6H'
p1392
tp1393
Rp1394
ag3
(g7
S'N\xc5lA\x8d\x89\xf6H'
p1395
tp1396
Rp1397
ag3
(g7
S'b\x9fj\x18\x99\x84\xf6H'
p1398
tp1399
Rp1400
atp1401
sI46
((lp1402
F0.6612470149993896
aF0.6591920852661133
aF1.7074270248413086
aF1.9362828731536865
aF0.37166309356689453
a(lp1403
g3
(g7
S'80C\x84\x16\xd5X@'
p1404
tp1405
Rp1406
ag3
(g7
S'k&\xe5)\x07\xe3X@'
p1407
tp1408
Rp1409
ag3
(g7
S'\xeb:z\xbbX\xb9X@'
p1410
tp1411
Rp1412
ag3
(g7
S'\x90\xf6\xe5)T\xaeX@'
p1413
tp1414
Rp1415
ag3
(g7
S'D\x04hS\t"Y@'
p1416
tp1417
Rp1418
aN(lp1419
g3
(g7
S'\x0e\xfe\xd1\xb6\x95\xc9 I'
p1420
tp1421
Rp1422
ag3
(g7
S'\xc3H\x99\xb7\xce\xba I'
p1423
tp1424
Rp1425
ag3
(g7
S'\xb8?J+\xb6\xa2 I'
p1426
tp1427
Rp1428
ag3
(g7
S'L\xdd\xdf5\x06\x90 I'
p1429
tp1430
Rp1431
ag3
(g7
S'\x99B\x04\x84\xd0\x8b I'
p1432
tp1433
Rp1434
atp1435
sI47
((lp1436
F0.9964659214019775
aF0.495074987411499
aF0.3806891441345215
aF1.0642058849334717
aF2.8388350009918213
a(lp1437
g3
(g7
S',\x111\xb2C\xe3Y@'
p1438
tp1439
Rp1440
ag3
(g7
S'\xce!\xbc\x8d\x1c\x05Z@'
p1441
tp1442
Rp1443
ag3
(g7
S'\x1c\xcf:\xcc\xc2AZ@'
p1444
tp1445
Rp1446
ag3
(g7
S'\xdb\x8a&\x8f1\xe4Y@'
p1447
tp1448
Rp1449
ag3
(g7
S'\x84\xc8\x89dP\x9cY@'
p1450
tp1451
Rp1452
aN(lp1453
g3
(g7
S'\x1c\x9e6\xd6\xb2\xb0xI'
p1454
tp1455
Rp1456
ag3
(g7
S'\xc5\xd3\xca\xd3\xd0\xa1xI'
p1457
tp1458
Rp1459
ag3
(g7
S'a\x1f]9\xb2\x95xI'
p1460
tp1461
Rp1462
ag3
(g7
S'W\x1ba\xe80\x82xI'
p1463
tp1464
Rp1465
ag3
(g7
S'\xd8\x1az\x03\xa8FxI'
p1466
tp1467
Rp1468
atp1469
sI48
((lp1470
F0.475797176361084
aF0.7131259441375732
aF0.44692015647888184
aF0.38681888580322266
aF0.39656710624694824
a(lp1471
g3
(g7
S'\x18\xf0!C9\xaeZ@'
p1472
tp1473
Rp1474
ag3
(g7
S'\x0b\x17^u\x80\x99Z@'
p1475
tp1476
Rp1477
ag3
(g7
S'v\xd3\x07\x8fd\xabZ@'
p1478
tp1479
Rp1480
ag3
(g7
S'[\xb1pu\xc3\xd3Z@'
p1481
tp1482
Rp1483
ag3
(g7
S'e\x86\xec\xc13\xe2Z@'
p1484
tp1485
Rp1486
aN(lp1487
g3
(g7
S'\x7f\xc5\xf0\x7f\x1f\xc2\xc0I'
p1488
tp1489
Rp1490
ag3
(g7
S"7\xf2'7\x8d\xad\xc0I"
p1491
tp1492
Rp1493
ag3
(g7
S'\x15\x9f\xc8\xdf\x0c\x9d\xc0I'
p1494
tp1495
Rp1496
ag3
(g7
S'mm\xcd|\xcd\x91\xc0I'
p1497
tp1498
Rp1499
ag3
(g7
S'~NA\xdfW\x8f\xc0I'
p1500
tp1501
Rp1502
atp1503
sI49
((lp1504
F1.0479052066802979
aF0.2126169204711914
aF0.21930694580078125
aF0.5076589584350586
aF0.6130001544952393
a(lp1505
g3
(g7
S'\xa6\x80\x1d\xd5)H[@'
p1506
tp1507
Rp1508
ag3
(g7
S'\x84\xbe\xef\xfc\xc0\xd9[@'
p1509
tp1510
Rp1511
ag3
(g7
S'\xdb|/\x1c\xa6\xf2[@'
p1512
tp1513
Rp1514
ag3
(g7
S'h\xd1o\\o\x8e[@'
p1515
tp1516
Rp1517
ag3
(g7
S'e\xb4\r(\xe0q[@'
p1518
tp1519
Rp1520
aN(lp1521
g3
(g7
S'09]\x8eP\xeb\x05J'
p1522
tp1523
Rp1524
ag3
(g7
S'%\x0e\xba\x9e(\xeb\x05J'
p1525
tp1526
Rp1527
ag3
(g7
S'I\xa2B\x8e\xeb\xe4\x05J'
p1528
tp1529
Rp1530
ag3
(g7
S'\xcb\xfdodu\xdb\x05J'
p1531
tp1532
Rp1533
ag3
(g7
S'\xf2[\x84+\x96\xce\x05J'
p1534
tp1535
Rp1536
atp1537
sI50
((lp1538
F0.39754605293273926
aF0.490739107131958
aF0.5937199592590332
aF0.7594990730285645
aF0.4562218189239502
a(lp1539
g3
(g7
S'\xeas\x0bk48\\@'
p1540
tp1541
Rp1542
ag3
(g7
S'\xa2\xe2\xa0\xc0\xbdB\\@'
p1543
tp1544
Rp1545
ag3
(g7
S'\xc5\x9e\xde\x9dr4\\@'
p1546
tp1547
Rp1548
ag3
(g7
S'c\xf4\xbc\x0f\nJ\\@'
p1549
tp1550
Rp1551
ag3
(g7
S'\xf5#\x9a<\x92*\\@'
p1552
tp1553
Rp1554
aN(lp1555
g3
(g7
S'\xd5\x849\xd95xMJ'
p1556
tp1557
Rp1558
ag3
(g7
S'\xc1r\xfe\xb3\x16kMJ'
p1559
tp1560
Rp1561
ag3
(g7
S'\xba\xae\xd9JTXMJ'
p1562
tp1563
Rp1564
ag3
(g7
S'\xcaq\x91\xd8\xfcPMJ'
p1565
tp1566
Rp1567
ag3
(g7
S'\r\xae\xe6\x06ZAMJ'
p1568
tp1569
Rp1570
atp1571
sI51
((lp1572
F1.153144121170044
aF0.758173942565918
aF0.5213310718536377
aF0.2486271858215332
aF3.2217228412628174
a(lp1573
g3
(g7
S'\x1a7\x9f\x96\\j]@'
p1574
tp1575
Rp1576
ag3
(g7
S'c\xb9\xd9$\x01>]@'
p1577
tp1578
Rp1579
ag3
(g7
S'\x8c\x04T\xb5\xed\\]@'
p1580
tp1581
Rp1582
ag3
(g7
S'\x0c"G{\xc5Z^@'
p1583
tp1584
Rp1585
ag3
(g7
S'\xc1\x04i\xf9\x00\xfa\\@'
p1586
tp1587
Rp1588
aN(lp1589
g3
(g7
S'\xa90.Q\x92\\\xb4J'
p1590
tp1591
Rp1592
ag3
(g7
S'`\x12q#\xfbK\xb4J'
p1593
tp1594
Rp1595
ag3
(g7
S'\x81B\xba\xeb\x1f8\xb4J'
p1596
tp1597
Rp1598
ag3
(g7
S'k\x04\xb3,}4\xb4J'
p1599
tp1600
Rp1601
ag3
(g7
S'^#\xe1\xab\xf5\x1e\xb4J'
p1602
tp1603
Rp1604
atp1605
sI52
((lp1606
F3.7775180339813232
aF2.670971155166626
aF1.9335401058197021
aF1.2123990058898926
aF1.3685839176177979
a(lp1607
g3
(g7
S'\x7f8ls\xc6\xa3]@'
p1608
tp1609
Rp1610
ag3
(g7
S']9\xbaj2\xa9]@'
p1611
tp1612
Rp1613
ag3
(g7
S'\x13vFd\xc8\xb9]@'
p1614
tp1615
Rp1616
ag3
(g7
S'4:\x84\x0b)\xe2]@'
p1617
tp1618
Rp1619
ag3
(g7
S'k\xb0\xb9T\xd5\xca]@'
p1620
tp1621
Rp1622
aN(lp1623
g3
(g7
S'\xbf\x15\xcc\x19}\x06\xeaJ'
p1624
tp1625
Rp1626
ag3
(g7
S'\x88\xda\xd4\xd5\x1e\xe4\xe9J'
p1627
tp1628
Rp1629
ag3
(g7
S'\r\xa1\xacmZ\xdf\xe9J'
p1630
tp1631
Rp1632
ag3
(g7
S'pWy\xe6\x10\xd2\xe9J'
p1633
tp1634
Rp1635
ag3
(g7
S'\xdcy\xd1\\\xd0\xcd\xe9J'
p1636
tp1637
Rp1638
atp1639
sI53
((lp1640
F0.7352089881896973
aF1.4362659454345703
aF0.29945898056030273
aF1.1648530960083008
aF2.593575954437256
a(lp1641
g3
(g7
S'\x1b\xc7ZS\xe3\xe4^@'
p1642
tp1643
Rp1644
ag3
(g7
S"\xc3'\xf8\x94\xd5\xb3^@"
p1645
tp1646
Rp1647
ag3
(g7
S'T1VY\x82\xc7^@'
p1648
tp1649
Rp1650
ag3
(g7
S'\xf1WO|\x80\xe9^@'
p1651
tp1652
Rp1653
ag3
(g7
S'\r\xa4?\xca\x1c~^@'
p1654
tp1655
Rp1656
aN(lp1657
g3
(g7
S'\xa57\x9e\x0fZ\xff<K'
p1658
tp1659
Rp1660
ag3
(g7
S'\x1e\xa5\xef;\xd9\xe0<K'
p1661
tp1662
Rp1663
ag3
(g7
S'F\x93\x9c\x0e@\xdc<K'
p1664
tp1665
Rp1666
ag3
(g7
S'\xbb\x98L\xf6\xa2\xd2<K'
p1667
tp1668
Rp1669
ag3
(g7
S'f\x1c\n\xdfx\xa7<K'
p1670
tp1671
Rp1672
atp1673
sI54
((lp1674
F0.5051529407501221
aF0.3231630325317383
aF1.618035078048706
aF0.5872740745544434
aF0.9086060523986816
a(lp1675
g3
(g7
S' \x85\x9e\xf4\x0c\xca_@'
p1676
tp1677
Rp1678
ag3
(g7
S'\xa5#\xcb\x9b!W`@'
p1679
tp1680
Rp1681
ag3
(g7
S'%6\xf27\xf6\x90_@'
p1682
tp1683
Rp1684
ag3
(g7
S'i\xb9FF\xa6\xcf_@'
p1685
tp1686
Rp1687
ag3
(g7
S'*\xfc\x13X\x87\xa2_@'
p1688
tp1689
Rp1690
aN(lp1691
g3
(g7
S'\x14\r\x91\x13c<\x81K'
p1692
tp1693
Rp1694
ag3
(g7
S'\x01\xe1\xb9%F9\x81K'
p1695
tp1696
Rp1697
ag3
(g7
S'\xa7f\xf6UX/\x81K'
p1698
tp1699
Rp1700
ag3
(g7
S'\tD\x96\xd3\xbc(\x81K'
p1701
tp1702
Rp1703
ag3
(g7
S'S\x90}\xb6\x1f$\x81K'
p1704
tp1705
Rp1706
atp1707
sI55
((lp1708
F2.8159070014953613
aF0.4440019130706787
aF3.417729139328003
aF0.5708301067352295
aF1.5744209289550781
a(lp1709
g3
(g7
S'\xc2\\,\x99\x88\x10`@'
p1710
tp1711
Rp1712
ag3
(g7
S'5\xa8AH\x9d/`@'
p1713
tp1714
Rp1715
ag3
(g7
S'8\x8e\xf9\xcf\x9e\xff_@'
p1716
tp1717
Rp1718
ag3
(g7
S'_\x9e\xdda\xd7%`@'
p1719
tp1720
Rp1721
ag3
(g7
S'\xd0\x8e?ox\x13`@'
p1722
tp1723
Rp1724
aN(lp1725
g3
(g7
S'\xf6)7P\x8dO\xc3K'
p1726
tp1727
Rp1728
ag3
(g7
S'X\xe4\x18\xb4\xabI\xc3K'
p1729
tp1730
Rp1731
ag3
(g7
S'\xfd\xdf.\xd3\xff!\xc3K'
p1732
tp1733
Rp1734
ag3
(g7
S'T\x91\x81\xdf\xb7!\xc3K'
p1735
tp1736
Rp1737
ag3
(g7
S'\xd0v\x05\x9b\x98\x17\xc3K'
p1738
tp1739
Rp1740
atp1741
sI56
((lp1742
F0.3491699695587158
aF9.124536991119385
aF0.7158370018005371
aF0.36166906356811523
aF1.2220211029052734
a(lp1743
g3
(g7
S'\xa4\r\x89=\xf4\xc6`@'
p1744
tp1745
Rp1746
ag3
(g7
S'\xddL\xd8-TT`@'
p1747
tp1748
Rp1749
ag3
(g7
S'P\x1c\x91\xa30\xc2`@'
p1750
tp1751
Rp1752
ag3
(g7
S'\x07\xe4.\x94\xb7\xbd`@'
p1753
tp1754
Rp1755
ag3
(g7
S'\x02\xf3\x86{\x1a\xaa`@'
p1756
tp1757
Rp1758
aN(lp1759
g3
(g7
S'\x01-\xc4>3\xcf\x1dL'
p1760
tp1761
Rp1762
ag3
(g7
S'\xc7l\x1e\xebVe\x1dL'
p1763
tp1764
Rp1765
ag3
(g7
S'\x8b\xea\x1f\xed\x1c]\x1dL'
p1766
tp1767
Rp1768
ag3
(g7
S'>B\x1b\xc3\xf9\\\x1dL'
p1769
tp1770
Rp1771
ag3
(g7
S'\xb8\xe1%\xf1YU\x1dL'
p1772
tp1773
Rp1774
atp1775
sI57
((lp1776
F3.5009100437164307
aF3.8080101013183594
aF0.34096193313598633
aF4.4910569190979
aF5.341079950332642
a(lp1777
g3
(g7
S'\xad\xa0\xe2~\xd3\x02a@'
p1778
tp1779
Rp1780
ag3
(g7
S'\x96n\xa6~\xa6\xf5`@'
p1781
tp1782
Rp1783
ag3
(g7
S'\x06{C\xcd\x96Ia@'
p1784
tp1785
Rp1786
ag3
(g7
S'\xbc\x9f\xc5\xe7\xb7\xed`@'
p1787
tp1788
Rp1789
ag3
(g7
S'\xb7\xc1\xd75\xc6\xe2`@'
p1790
tp1791
Rp1792
aN(lp1793
g3
(g7
S'\x90\xef\xcc\xa4a\x02qL'
p1794
tp1795
Rp1796
ag3
(g7
S'\xe1E\x94\xfe\xe6\xe9pL'
p1797
tp1798
Rp1799
ag3
(g7
S'\xbb\x02\xc3\xcf\xcf\xe9pL'
p1800
tp1801
Rp1802
ag3
(g7
S'\xe9]\x18[E\xcfpL'
p1803
tp1804
Rp1805
ag3
(g7
S'\xca\x90<\x96K\xc0pL'
p1806
tp1807
Rp1808
atp1809
sI58
((lp1810
F5.447736024856567
aF3.8626909255981445
aF1.2664060592651367
aF0.7456009387969971
aF6.000262975692749
a(lp1811
g3
(g7
S'\x8c\x0eJ\xca\x08Ea@'
p1812
tp1813
Rp1814
ag3
(g7
S'\xf2\x7f$rMYa@'
p1815
tp1816
Rp1817
ag3
(g7
S'\xf2\x1a\x9d\xce%\x91a@'
p1818
tp1819
Rp1820
ag3
(g7
S'\xf6\xfc\x16\xe6\xfc\x0fb@'
p1821
tp1822
Rp1823
ag3
(g7
S'[\xd7\xd7>\x8aJa@'
p1824
tp1825
Rp1826
aN(lp1827
g3
(g7
S"\xf6\x01\xf0'\xf3R\xbeL"
p1828
tp1829
Rp1830
ag3
(g7
S's\xc2\x10\x1bD0\xbeL'
p1831
tp1832
Rp1833
ag3
(g7
S'U\x07\x92\xb7\x9b.\xbeL'
p1834
tp1835
Rp1836
ag3
(g7
S'\x06\xa4\xd7\x9fU.\xbeL'
p1837
tp1838
Rp1839
ag3
(g7
S'\xe5\xb5\xca\xfcB\x19\xbeL'
p1840
tp1841
Rp1842
atp1843
sI59
((lp1844
F4.564996004104614
aF2.058079957962036
aF1.264983892440796
aF3.7734711170196533
aF1.514411211013794
a(lp1845
g3
(g7
S'\xaf\x0b\x1eM\xb2\xd1a@'
p1846
tp1847
Rp1848
ag3
(g7
S'\xcb\xaa\xafa\x03\xf1a@'
p1849
tp1850
Rp1851
ag3
(g7
S'+\x16\\N\xfc\x15b@'
p1852
tp1853
Rp1854
ag3
(g7
S'\xe9\x01\x976\x1b\xe5a@'
p1855
tp1856
Rp1857
ag3
(g7
S'\xddX\x89:\xb4\x12b@'
p1858
tp1859
Rp1860
aN(lp1861
g3
(g7
S'\n,\xcd0\x1d\x92\x14M'
p1862
tp1863
Rp1864
ag3
(g7
S'\xdc\x84>\xe0\x8d\x85\x14M'
p1865
tp1866
Rp1867
ag3
(g7
S'\xe9\x00V\xec\xa4\x83\x14M'
p1868
tp1869
Rp1870
ag3
(g7
S'r\xf2\x9aj\xfcr\x14M'
p1871
tp1872
Rp1873
ag3
(g7
S"\xf4'\xbd\xc7\xe5k\x14M"
p1874
tp1875
Rp1876
atp1877
sI60
((lp1878
F4.504870176315308
aF0.4372551441192627
aF1.5818331241607666
aF2.3863749504089355
aF0.43122386932373047
a(lp1879
g3
(g7
S'\xab\xb9\xedK\x80@b@'
p1880
tp1881
Rp1882
ag3
(g7
S'\xfb\x0b\xbe\x01\x80mb@'
p1883
tp1884
Rp1885
ag3
(g7
S'\xa0\xb7p=\rsb@'
p1886
tp1887
Rp1888
ag3
(g7
S'\x82\x15\x93R/fb@'
p1889
tp1890
Rp1891
ag3
(g7
S'\xcc!\xf8.Lzb@'
p1892
tp1893
Rp1894
aN(lp1895
g3
(g7
S'\x80\xe6\xd8fG\x03bM'
p1896
tp1897
Rp1898
ag3
(g7
S'!\x84=\xcdE\x03bM'
p1899
tp1900
Rp1901
ag3
(g7
S'\xc3F=\x08\xb1\xfeaM'
p1902
tp1903
Rp1904
ag3
(g7
S'\x85\x89\xc3j\xaf\xf6aM'
p1905
tp1906
Rp1907
ag3
(g7
S'\xc1\x1d\x05H\x9c\xf6aM'
p1908
tp1909
Rp1910
atp1911
sI61
((lp1912
F8.879256963729858
aF9.839385032653809
aF0.4555699825286865
aF0.4695889949798584
aF0.915524959564209
a(lp1913
g3
(g7
S'/\xdb\xdaX&\x9cb@'
p1914
tp1915
Rp1916
ag3
(g7
S'\xa2\xe9\xff$}\x9db@'
p1917
tp1918
Rp1919
ag3
(g7
S'\xe0o\xa24$+c@'
p1920
tp1921
Rp1922
ag3
(g7
S'\xfa\xd5P\x15\xb3Cc@'
p1923
tp1924
Rp1925
ag3
(g7
S'\xd4d\xd8}|\xf9b@'
p1926
tp1927
Rp1928
aN(lp1929
g3
(g7
S'c\xc3\xe31\x9b\xb7\xb8M'
p1930
tp1931
Rp1932
ag3
(g7
S'\x0c6M\xf5\x89\x7f\xb8M'
p1933
tp1934
Rp1935
ag3
(g7
S'\x16\xc7l\xfdi\x7f\xb8M'
p1936
tp1937
Rp1938
ag3
(g7
S'=\x1e\x85V\xbby\xb8M'
p1939
tp1940
Rp1941
ag3
(g7
S'\x8bv\xf7\x8f>x\xb8M'
p1942
tp1943
Rp1944
atp1945
sI62
((lp1946
F1.3519999980926514
aF7.756505966186523
aF0.8807551860809326
aF1.9336450099945068
aF8.403505086898804
a(lp1947
g3
(g7
S'\xbe<)\xb8iOc@'
p1948
tp1949
Rp1950
ag3
(g7
S'\xe9j-\xc9)\x1ac@'
p1951
tp1952
Rp1953
ag3
(g7
S'k/S\xc7\xe3Xc@'
p1954
tp1955
Rp1956
ag3
(g7
S'\xee\xd5+\xe7\x98Jc@'
p1957
tp1958
Rp1959
ag3
(g7
S'\xd7\xab\xaf\xd6N\x1bc@'
p1960
tp1961
Rp1962
aN(lp1963
g3
(g7
S'A\x02\xdfO\x19:\nN'
p1964
tp1965
Rp1966
ag3
(g7
S'\xd6W\x8c=\x94\x03\nN'
p1967
tp1968
Rp1969
ag3
(g7
S'\xd6\xed$\xed\xfc\xff\tN'
p1970
tp1971
Rp1972
ag3
(g7
S')\xe6\x1a\x9a~\xfe\tN'
p1973
tp1974
Rp1975
ag3
(g7
S'\xbe\xd7\xab\x08.\xdd\tN'
p1976
tp1977
Rp1978
atp1979
sI63
((lp1980
F3.0017170906066895
aF20.393171072006226
aF1.0207569599151611
aF0.5162498950958252
aF7.704452037811279
a(lp1981
g3
(g7
S'\xb4\xe1\t<\xa0\xbec@'
p1982
tp1983
Rp1984
ag3
(g7
S'\xde\x90\x08v\xf6vc@'
p1985
tp1986
Rp1987
ag3
(g7
S'K\x14\xd1MA\xe1c@'
p1988
tp1989
Rp1990
ag3
(g7
S'\xc7H\xbf\x86\xed\xedc@'
p1991
tp1992
Rp1993
ag3
(g7
S'\xcb\x071\xb9\x93\x97c@'
p1994
tp1995
Rp1996
aN(lp1997
g3
(g7
S'\xf7\xd6\x81l\xed\xc7_N'
p1998
tp1999
Rp2000
ag3
(g7
S'\x89\xe2/c>__N'
p2001
tp2002
Rp2003
ag3
(g7
S'\x03\xeb\xbd\x96*__N'
p2004
tp2005
Rp2006
ag3
(g7
S'\x81^\xd2\xdf\x1c__N'
p2007
tp2008
Rp2009
ag3
(g7
S'\x11\xf3\x831\x84U_N'
p2010
tp2011
Rp2012
atp2013
sI64
((lp2014
F2.5869638919830322
aF1.6570911407470703
aF4.704494953155518
aF2.664486885070801
aF1.6934878826141357
a(lp2015
g3
(g7
S'V\x1b*\xa9,\x1ad@'
p2016
tp2017
Rp2018
ag3
(g7
S'tH\x9e9\xa0\x0ed@'
p2019
tp2020
Rp2021
ag3
(g7
S'q\xe9H3\x98\x05d@'
p2022
tp2023
Rp2024
ag3
(g7
S'\xe6\x0c\xef`\xd3\x17d@'
p2025
tp2026
Rp2027
ag3
(g7
S'\x17\xa6c\xf7\xe1\x10d@'
p2028
tp2029
Rp2030
aN(lp2031
g3
(g7
S'\xd5\xd9u}\xd3\xeb\xa3N'
p2032
tp2033
Rp2034
ag3
(g7
S'\x02\xda\x8ea2\xe4\xa3N'
p2035
tp2036
Rp2037
ag3
(g7
S'\x8d\xc0x\xcfL\xdb\xa3N'
p2038
tp2039
Rp2040
ag3
(g7
S'\r\xd8\xb5\xa2#\xd3\xa3N'
p2041
tp2042
Rp2043
ag3
(g7
S"\xf6+\xd4'\xbc\xcb\xa3N"
p2044
tp2045
Rp2046
atp2047
sI65
((lp2048
F0.9698998928070068
aF1.4181420803070068
aF0.5353028774261475
aF3.6698009967803955
aF2.6459951400756836
a(lp2049
g3
(g7
S'\x8e\x9bY\xc7\xe4\x83d@'
p2050
tp2051
Rp2052
ag3
(g7
S'S\x10!c\xaaed@'
p2053
tp2054
Rp2055
ag3
(g7
S'=\xf6\xf7\x04\xe7\x80d@'
p2056
tp2057
Rp2058
ag3
(g7
S'\xb1J\x1f\xe7\x85ed@'
p2059
tp2060
Rp2061
ag3
(g7
S'\x17\x96\xfd\xb9gid@'
p2062
tp2063
Rp2064
aN(lp2065
g3
(g7
S'Y\x17\x81\xb6\xb7M\xd7N'
p2066
tp2067
Rp2068
ag3
(g7
S'\x7f\xf2\x9bh\tE\xd7N'
p2069
tp2070
Rp2071
ag3
(g7
S'\xe8\xda\xb4\xe2DB\xd7N'
p2072
tp2073
Rp2074
ag3
(g7
S'\x91\x0bD\xf4i1\xd7N'
p2075
tp2076
Rp2077
ag3
(g7
S'j\x1a{;\x83#\xd7N'
p2078
tp2079
Rp2080
atp2081
sI66
((lp2082
F1.2752299308776855
aF4.706516981124878
aF0.5656487941741943
aF2.394979953765869
aF1.1066968441009521
a(lp2083
g3
(g7
S'\x90R6\xec\xf0\xe4d@'
p2084
tp2085
Rp2086
ag3
(g7
S'r\xd7\xb2TS\xcdd@'
p2087
tp2088
Rp2089
ag3
(g7
S'\xa7w\xe8\x13\xd2\x0ce@'
p2090
tp2091
Rp2092
ag3
(g7
S'OP^\x12\xc8\xe2d@'
p2093
tp2094
Rp2095
ag3
(g7
S'\xd4U$\x81U\x00e@'
p2096
tp2097
Rp2098
aN(lp2099
g3
(g7
S"'\x01\x97\xbb#\xf12O"
p2100
tp2101
Rp2102
ag3
(g7
S'~54\x9f\x1c\xd92O'
p2103
tp2104
Rp2105
ag3
(g7
S'\xb5\xd6\xac\x8e\x89\xd52O'
p2106
tp2107
Rp2108
ag3
(g7
S'\xc4\xe3\xc8\xd5\n\xcb2O'
p2109
tp2110
Rp2111
ag3
(g7
S'f\xec\x89o!\xc92O'
p2112
tp2113
Rp2114
atp2115
sI67
((lp2116
F8.615967035293579
aF9.077590942382812
aF4.070476055145264
aF4.239326000213623
aF19.900971174240112
a(lp2117
g3
(g7
S'\xf9\xc7)F\x8c"e@'
p2118
tp2119
Rp2120
ag3
(g7
S'e\xc45+\x93 e@'
p2121
tp2122
Rp2123
ag3
(g7
S'\x11\xa2\xaeuV:e@'
p2124
tp2125
Rp2126
ag3
(g7
S'\xfc\x85\x14`\xc67e@'
p2127
tp2128
Rp2129
ag3
(g7
S'\x19\xc6f\xe3\xfc\te@'
p2130
tp2131
Rp2132
aN(lp2133
g3
(g7
S'\x88\x02Q/\xaf\x1f|O'
p2134
tp2135
Rp2136
ag3
(g7
S'\xfd>\xf9?]\xe6{O'
p2137
tp2138
Rp2139
ag3
(g7
S'\xeb\x9f\xfc\xea\xf7\xd1{O'
p2140
tp2141
Rp2142
ag3
(g7
S'k\xec\xe8\xcd\x00\xbf{O'
p2143
tp2144
Rp2145
ag3
(g7
S'_\x06\x8a&\x06\xa3{O'
p2146
tp2147
Rp2148
atp2149
sI68
((lp2150
F7.327244997024536
aF1.7644281387329102
aF6.178294897079468
aF2.811669111251831
aF1.7383878231048584
a(lp2151
g3
(g7
S'\xbf\x1a\xfd\xbf\xf5\xbfe@'
p2152
tp2153
Rp2154
ag3
(g7
S'\xdd\xd9\xbb\xa5,\xe6e@'
p2155
tp2156
Rp2157
ag3
(g7
S'\t_-\xe9\xc1\xc3e@'
p2158
tp2159
Rp2160
ag3
(g7
S'\x00\xbaE\xae\xbe\xf2e@'
p2161
tp2162
Rp2163
ag3
(g7
S'\xe4\xd9#\xa4\xe3\xf5e@'
p2164
tp2165
Rp2166
aN(lp2167
g3
(g7
S'K\x9c@\x9d\x8f?\xf0O'
p2168
tp2169
Rp2170
ag3
(g7
S'\xdb\x11\x19\xbdF<\xf0O'
p2171
tp2172
Rp2173
ag3
(g7
S'-\t\x8bz/2\xf0O'
p2174
tp2175
Rp2176
ag3
(g7
S"j\x96'e{/\xf0O"
p2177
tp2178
Rp2179
ag3
(g7
S'\xed\x19\x82\xa4\xf5+\xf0O'
p2180
tp2181
Rp2182
atp2183
sI69
((lp2184
F10.563372135162354
aF2.5550479888916016
aF5.752937078475952
aF0.6415040493011475
aF2.5890800952911377
a(lp2185
g3
(g7
S'\x93\x94\xd4\xad\x8b3f@'
p2186
tp2187
Rp2188
ag3
(g7
S'f\x82\xe6\x07Jzf@'
p2189
tp2190
Rp2191
ag3
(g7
S'\xe9Sp\xf3\xe9Wf@'
p2192
tp2193
Rp2194
ag3
(g7
S'\xf4\xb0\x18\xf4`\xb4f@'
p2195
tp2196
Rp2197
ag3
(g7
S'.\x08\xf4\xdf\xe3pf@'
p2198
tp2199
Rp2200
aN(lp2201
g3
(g7
S'\x8a\xa7\x86\xd7r\xd4PP'
p2202
tp2203
Rp2204
ag3
(g7
S'\xceW\xbf\xfb\x06\xcfPP'
p2205
tp2206
Rp2207
ag3
(g7
S'/\xcc\xb9I\xb2\xc5PP'
p2208
tp2209
Rp2210
ag3
(g7
S'l\xe9\xbe,\xa7\xc5PP'
p2211
tp2212
Rp2213
ag3
(g7
S'zO\xb2\x88\xc8\xc3PP'
p2214
tp2215
Rp2216
atp2217
sI70
((lp2218
F2.6911399364471436
aF8.40142297744751
aF1.3558590412139893
aF2.8213789463043213
aF2.577796220779419
a(lp2219
g3
(g7
S'\x8b\xa1\x80\xf6\xa7\xb5f@'
p2220
tp2221
Rp2222
ag3
(g7
S'\x95g\xc1\x8dV\x88f@'
p2223
tp2224
Rp2225
ag3
(g7
S'\x8e\xb9\xac\xa0\xd6\xbef@'
p2226
tp2227
Rp2228
ag3
(g7
S'\xae\xfd\xd0\xacY\xa0f@'
p2229
tp2230
Rp2231
ag3
(g7
S'w\xd2Ga\xe8\xc2f@'
p2232
tp2233
Rp2234
aN(lp2235
g3
(g7
S'\rT\x99e\xafh\x7fP'
p2236
tp2237
Rp2238
ag3
(g7
S'E\xf1 Ef8\x7fP'
p2239
tp2240
Rp2241
ag3
(g7
S'\xe8\xbeg{b3\x7fP'
p2242
tp2243
Rp2244
ag3
(g7
S"&\x13\xfa=*'\x7fP"
p2245
tp2246
Rp2247
ag3
(g7
S'%\x9d\x87@\x1f\x1e\x7fP'
p2248
tp2249
Rp2250
atp2251
sI71
((lp2252
F2.1385269165039062
aF5.004225969314575
aF6.979202032089233
aF8.819242000579834
aF10.500060796737671
a(lp2253
g3
(g7
S'\x8a\xf7\xb7\xbb9Zg@'
p2254
tp2255
Rp2256
ag3
(g7
S'\x91\x93\x8d\xba~4g@'
p2257
tp2258
Rp2259
ag3
(g7
S' \x02<X8\x1fg@'
p2260
tp2261
Rp2262
ag3
(g7
S'\xdf\xe4\x9c\x1b\xeb\x12g@'
p2263
tp2264
Rp2265
ag3
(g7
S'\xa7\x18\xe4\x15\x94,g@'
p2266
tp2267
Rp2268
aN(lp2269
g3
(g7
S'j\x1c\x0b\xcb3\x10\xe5P'
p2270
tp2271
Rp2272
ag3
(g7
S'\xcdoM5\xe5\xf9\xe4P'
p2273
tp2274
Rp2275
ag3
(g7
S'\x16y\xe2\xc0\xf5\xe6\xe4P'
p2276
tp2277
Rp2278
ag3
(g7
S'<+\x15P\x8f\xcf\xe4P'
p2279
tp2280
Rp2281
ag3
(g7
S'"\xd92\xb7\x1d\xc6\xe4P'
p2282
tp2283
Rp2284
atp2285
sI72
((lp2286
F2.3518688678741455
aF5.473266124725342
aF13.016967058181763
aF1.761132001876831
aF6.79512882232666
a(lp2287
g3
(g7
S'\xc52\x07\xc1\xdf\x9ag@'
p2288
tp2289
Rp2290
ag3
(g7
S'\xf3\xc7\xe1\xe8\xe3\x9fg@'
p2291
tp2292
Rp2293
ag3
(g7
S'\xfe\xc1$$\xc6[g@'
p2294
tp2295
Rp2296
ag3
(g7
S'\xc5\xb1\x13\xa6\xfe\xaeg@'
p2297
tp2298
Rp2299
ag3
(g7
S'\x0e%\xba3\x9alg@'
p2300
tp2301
Rp2302
aN(lp2303
g3
(g7
S'hV]WJ\xf2\x1aQ'
p2304
tp2305
Rp2306
ag3
(g7
S'o1\x16w\xe3\xe0\x1aQ'
p2307
tp2308
Rp2309
ag3
(g7
S'\x91\xbbAiJ\xa7\x1aQ'
p2310
tp2311
Rp2312
ag3
(g7
S'\x9a\x93Z\xa9\x81\x9f\x1aQ'
p2313
tp2314
Rp2315
ag3
(g7
S'OmS\xd3%\x95\x1aQ'
p2316
tp2317
Rp2318
atp2319
sI73
((lp2320
F5.934896945953369
aF0.8567349910736084
aF2.264650821685791
aF8.389843940734863
aF6.918900966644287
a(lp2321
g3
(g7
S'\xee\xf6Y\x84\xf5\xe9g@'
p2322
tp2323
Rp2324
ag3
(g7
S'?^\xb4\xf3B|h@'
p2325
tp2326
Rp2327
ag3
(g7
S'\xe3\xb5\xa3\x83\x1f!h@'
p2328
tp2329
Rp2330
ag3
(g7
S'\x15\x00\x14\xbb\xb2\xd3g@'
p2331
tp2332
Rp2333
ag3
(g7
S':\x00\xb4\xb8\xde\xdeg@'
p2334
tp2335
Rp2336
aN(lp2337
g3
(g7
S'\xabc\xc9\xf3p\xc9fQ'
p2338
tp2339
Rp2340
ag3
(g7
S'\xc0{\xa3\x16j\xc6fQ'
p2341
tp2342
Rp2343
ag3
(g7
S'\xfc\xa7\xf2c\xc4\xb8fQ'
p2344
tp2345
Rp2346
ag3
(g7
S'6\xd1\xce\x98\x1e\xabfQ'
p2347
tp2348
Rp2349
ag3
(g7
S'\x91\xb0\t\x80\xbc\xa2fQ'
p2350
tp2351
Rp2352
atp2353
sI74
((lp2354
F2.586812973022461
aF15.161421060562134
aF2.3929200172424316
aF4.894897937774658
aF3.534865140914917
a(lp2355
g3
(g7
S'_\xdd\xf7\xcdzYh@'
p2356
tp2357
Rp2358
ag3
(g7
S'\xf3(!e\xf4\x1bh@'
p2359
tp2360
Rp2361
ag3
(g7
S'oh\xa7\x0f\x07th@'
p2362
tp2363
Rp2364
ag3
(g7
S't\x1f\xb4\x81\tMh@'
p2365
tp2366
Rp2367
ag3
(g7
S'aQ\xbf\x06\x9dKh@'
p2368
tp2369
Rp2370
aN(lp2371
g3
(g7
S';-tX\xbd\xed\xb2Q'
p2372
tp2373
Rp2374
ag3
(g7
S',y)(\x1c\xc5\xb2Q'
p2375
tp2376
Rp2377
ag3
(g7
S'\x0b[\x99\xd2\xa0\xbd\xb2Q'
p2378
tp2379
Rp2380
ag3
(g7
S'\x0e\xaa\xec\xc2i\xb5\xb2Q'
p2381
tp2382
Rp2383
ag3
(g7
S'"D\xf0@-\xb0\xb2Q'
p2384
tp2385
Rp2386
atp2387
sI75
((lp2388
F1.9399809837341309
aF1.6570839881896973
aF5.320940017700195
aF1.286073923110962
aF13.360229969024658
a(lp2389
g3
(g7
S'<g\x18\xca\xdd7i@'
p2390
tp2391
Rp2392
ag3
(g7
S'\x1f\x15\xfe\xee\xdcti@'
p2393
tp2394
Rp2395
ag3
(g7
S'v\x9d7\xff \x11i@'
p2396
tp2397
Rp2398
ag3
(g7
S'\xb6\x8d\xc4\x16\xa2"i@'
p2399
tp2400
Rp2401
ag3
(g7
S'\xad\xd6\xbf\xc4\x17\xech@'
p2402
tp2403
Rp2404
aN(lp2405
g3
(g7
S'\xa2\xa7`&@V=R'
p2406
tp2407
Rp2408
ag3
(g7
S'\x88+@\x88\xc0P=R'
p2409
tp2410
Rp2411
ag3
(g7
S'\x05\xc4}\x82\xe0A=R'
p2412
tp2413
Rp2414
ag3
(g7
S'\x85\x9a\x9e!\xea:=R'
p2415
tp2416
Rp2417
ag3
(g7
S'X\xdf\xf0\xfd\x80\x1b=R'
p2418
tp2419
Rp2420
atp2421
sI76
((lp2422
F11.804006099700928
aF18.307673931121826
aF1.221005916595459
aF0.9232490062713623
aF6.645756006240845
a(lp2423
g3
(g7
S'\xbc\xd9\xd9\x98\x01*i@'
p2424
tp2425
Rp2426
ag3
(g7
S'\x8a\xd1\x85#a\x18i@'
p2427
tp2428
Rp2429
ag3
(g7
S'\xa5\xd7Aw\x05si@'
p2430
tp2431
Rp2432
ag3
(g7
S'3%\xc4\x0c\x97\x87i@'
p2433
tp2434
Rp2435
ag3
(g7
S'\x86=\xf4\x93\xa8wi@'
p2436
tp2437
Rp2438
aN(lp2439
g3
(g7
S'\x9eA\x80\x8f\xfb\x01gR'
p2440
tp2441
Rp2442
ag3
(g7
S'\x1f\xf7\x8e\x16G\xe6fR'
p2443
tp2444
Rp2445
ag3
(g7
S':]l\xd9>\xe6fR'
p2446
tp2447
Rp2448
ag3
(g7
S'\xc2R\xc7\xdb7\xe5fR'
p2449
tp2450
Rp2451
ag3
(g7
S'Lq\xe4\xd6\xda\xdbfR'
p2452
tp2453
Rp2454
atp2455
sI77
((lp2456
F1.9565649032592773
aF2.7792980670928955
aF29.720675945281982
aF19.722618103027344
aF3.340579032897949
a(lp2457
g3
(g7
S'f\xa3\x00\xefX\xd8i@'
p2458
tp2459
Rp2460
ag3
(g7
S'E\x1b\xac\xb6\\\xf6i@'
p2461
tp2462
Rp2463
ag3
(g7
S'(\x04\xc0\xc9.\x9fi@'
p2464
tp2465
Rp2466
ag3
(g7
S'\xf7\x06\x96\r\xd7\xa1i@'
p2467
tp2468
Rp2469
ag3
(g7
S'\xf5\xe7[|\xe4\xe8i@'
p2470
tp2471
Rp2472
aN(lp2473
g3
(g7
S"\xf7'\x9aP\xe9P\xc8R"
p2474
tp2475
Rp2476
ag3
(g7
S']\x1et\xb1HK\xc8R'
p2477
tp2478
Rp2479
ag3
(g7
S'(r]I\x03\x0e\xc8R'
p2480
tp2481
Rp2482
ag3
(g7
S'\x90(l\x02\x0c\xf9\xc7R'
p2483
tp2484
Rp2485
ag3
(g7
S'1\xe2\x12\x00\xd9\xf8\xc7R'
p2486
tp2487
Rp2488
atp2489
sI78
((lp2490
F19.310271978378296
aF3.2495648860931396
aF11.24393606185913
aF12.888469934463501
aF7.046760082244873
a(lp2491
g3
(g7
S'\xe2V+\xa5t,j@'
p2492
tp2493
Rp2494
ag3
(g7
S'\xc9pc\xf8\\\x8fj@'
p2495
tp2496
Rp2497
ag3
(g7
S'\xbe\xf5\x02\xe8WNj@'
p2498
tp2499
Rp2500
ag3
(g7
S'\xa9\xd9-\xe8\xd8Mj@'
p2501
tp2502
Rp2503
ag3
(g7
S'6\xf1\xa1\xa8\x86Kj@'
p2504
tp2505
Rp2506
aN(lp2507
g3
(g7
S'\xe8\x11\xd5\xa2\xbcO+S'
p2508
tp2509
Rp2510
ag3
(g7
S'\x87\xe9e\xa8\xd7H+S'
p2511
tp2512
Rp2513
ag3
(g7
S'\x89\x8f\xc6\xd3\xdd7+S'
p2514
tp2515
Rp2516
ag3
(g7
S'\xa5\x8f4\tD3+S'
p2517
tp2518
Rp2519
ag3
(g7
S'G\xb4%\xf8#*+S'
p2520
tp2521
Rp2522
atp2523
sI79
((lp2524
F4.158047914505005
aF6.988757133483887
aF10.897329807281494
aF2.390347957611084
aF8.383543968200684
a(lp2525
g3
(g7
S'\x83F\xb3&\xc9\xb3j@'
p2526
tp2527
Rp2528
ag3
(g7
S'\x99\xab\x15H\xf6\xc1j@'
p2529
tp2530
Rp2531
ag3
(g7
S'\xaf=\x14f\xf2\xa0j@'
p2532
tp2533
Rp2534
ag3
(g7
S'\xebz\xa3\xecb\xf8j@'
p2535
tp2536
Rp2537
ag3
(g7
S'M\xd6Q\xd2\xcc\xb6j@'
p2538
tp2539
Rp2540
aN(lp2541
g3
(g7
S'\x18\x8bb\xdf\x84\xfarS'
p2542
tp2543
Rp2544
ag3
(g7
S'\xe9\xe5\x81$\xd2\xefrS'
p2545
tp2546
Rp2547
ag3
(g7
S':\xcaIv9\xe2rS'
p2548
tp2549
Rp2550
ag3
(g7
S'\x11\x80v\xf00\xderS'
p2551
tp2552
Rp2553
ag3
(g7
S'L\t\xc8f\x08\xd5rS'
p2554
tp2555
Rp2556
atp2557
sI80
((lp2558
F2.1876838207244873
aF3.892242908477783
aF4.282472848892212
aF8.902024984359741
aF6.138582944869995
a(lp2559
g3
(g7
S'\xbe\xceDe\x1f_k@'
p2560
tp2561
Rp2562
ag3
(g7
S'\xf9\x89\xb49\x05Wk@'
p2563
tp2564
Rp2565
ag3
(g7
S'I%r\xf3\xc13k@'
p2566
tp2567
Rp2568
ag3
(g7
S'\xd3\x91%\xa8\x11;k@'
p2569
tp2570
Rp2571
ag3
(g7
S'\xa9\xa3\xe0\xfd\xe0@k@'
p2572
tp2573
Rp2574
aN(lp2575
g3
(g7
S'P\xad\x1e\xf2\tf\xc9S'
p2576
tp2577
Rp2578
ag3
(g7
S'\xe5\x02:\xb0\x19`\xc9S'
p2579
tp2580
Rp2581
ag3
(g7
S'A\x85h~][\xc9S'
p2582
tp2583
Rp2584
ag3
(g7
S'\x92\x15\\\x89;M\xc9S'
p2585
tp2586
Rp2587
ag3
(g7
S'"\xa3\'\xb1;A\xc9S'
p2588
tp2589
Rp2590
atp2591
sI81
((lp2592
F7.3902740478515625
aF1.1566860675811768
aF4.052091121673584
aF26.582966804504395
aF5.671637058258057
a(lp2593
g3
(g7
S'\\z\x03\xfa\xfe\x9dk@'
p2594
tp2595
Rp2596
ag3
(g7
S'M\x86`\xad\x90Ll@'
p2597
tp2598
Rp2599
ag3
(g7
S'\n\x935\xb6^\xa7k@'
p2600
tp2601
Rp2602
ag3
(g7
S'\x994;\xa2\x13tk@'
p2603
tp2604
Rp2605
ag3
(g7
S'i\n\x9f\x142\xa7k@'
p2606
tp2607
Rp2608
aN(lp2609
g3
(g7
S'\xc962\xcc)|\x16T'
p2610
tp2611
Rp2612
ag3
(g7
S'!\xdc#\xc1|y\x16T'
p2613
tp2614
Rp2615
ag3
(g7
S'\x9d\xdfGz\x9dx\x16T'
p2616
tp2617
Rp2618
ag3
(g7
S'\xb4uI\x8f&U\x16T'
p2619
tp2620
Rp2621
ag3
(g7
S'\xb3\\\xe3/\xb8P\x16T'
p2622
tp2623
Rp2624
atp2625
sI82
((lp2626
F7.532732009887695
aF1.191084861755371
aF16.198317050933838
aF2.3412981033325195
aF3.049990177154541
a(lp2627
g3
(g7
S'L8$\xf6U!l@'
p2628
tp2629
Rp2630
ag3
(g7
S'\x83)\n\xc8\x08ql@'
p2631
tp2632
Rp2633
ag3
(g7
S'\xf4\xc7r\x98\xfa\x10l@'
p2634
tp2635
Rp2636
ag3
(g7
S'\x19>\xb0\xc4\xbfAl@'
p2637
tp2638
Rp2639
ag3
(g7
S'\xc6\xcc2tb?l@'
p2640
tp2641
Rp2642
aN(lp2643
g3
(g7
S'\xe9\x8e\x96\x06\x1c\x82vT'
p2644
tp2645
Rp2646
ag3
(g7
S'w~y\x018\x80vT'
p2647
tp2648
Rp2649
ag3
(g7
S'\xc3\xa5\x91jLlvT'
p2650
tp2651
Rp2652
ag3
(g7
S'\xee,\x0ea kvT'
p2653
tp2654
Rp2655
ag3
(g7
S'\xa7\xe4s\xc8cgvT'
p2656
tp2657
Rp2658
atp2659
sI83
((lp2660
F10.243120908737183
aF5.049674034118652
aF1.6176588535308838
aF1.2055480480194092
aF32.416369915008545
a(lp2661
g3
(g7
S'\t\xb8?\xc8\x7f\xa1l@'
p2662
tp2663
Rp2664
ag3
(g7
S'\xf0{\x8c\xf4=\xb6l@'
p2665
tp2666
Rp2667
ag3
(g7
S'\xec\x91\xb9\xb6\xf9\xb6l@'
p2668
tp2669
Rp2670
ag3
(g7
S'\xc1-\x04w\xfe\xf9l@'
p2671
tp2672
Rp2673
ag3
(g7
S'P\x06\xb2\x18\x0b\x84l@'
p2674
tp2675
Rp2676
aN(lp2677
g3
(g7
S'\xb9\xe5\xb9\x80\xd44\xd8T'
p2678
tp2679
Rp2680
ag3
(g7
S'#\xd4\xb1z\xd6.\xd8T'
p2681
tp2682
Rp2683
ag3
(g7
S'\x18(\t\x9b\x91)\xd8T'
p2684
tp2685
Rp2686
ag3
(g7
S'\xed\x1c\xf4\x05\x8b)\xd8T'
p2687
tp2688
Rp2689
ag3
(g7
S'\xac\n\x83\x08\xc2\t\xd8T'
p2690
tp2691
Rp2692
atp2693
sI84
((lp2694
F4.3030970096588135
aF9.521960020065308
aF7.493651866912842
aF4.24018120765686
aF2.706265926361084
a(lp2695
g3
(g7
S'\xf0U\xa5j\xd6\xfel@'
p2696
tp2697
Rp2698
ag3
(g7
S'A\xe9\xa6~\xb4\x01m@'
p2699
tp2700
Rp2701
ag3
(g7
S'X\x19\xd0=\x88\xfbl@'
p2702
tp2703
Rp2704
ag3
(g7
S'\xe3\xe5z=c\x18m@'
p2705
tp2706
Rp2707
ag3
(g7
S'\xd9\xd4\x94\xfe#/m@'
p2708
tp2709
Rp2710
aN(lp2711
g3
(g7
S'\xe4$\x91gP\xee\x17U'
p2712
tp2713
Rp2714
ag3
(g7
S'#a;\xc2\x85\xda\x17U'
p2715
tp2716
Rp2717
ag3
(g7
S'\x93\xfe\x9b_\xdc\xd4\x17U'
p2718
tp2719
Rp2720
ag3
(g7
S'\xe4\xb7S\xa2\xcc\xd2\x17U'
p2721
tp2722
Rp2723
ag3
(g7
S'\xbd`Ap"\xcf\x17U'
p2724
tp2725
Rp2726
atp2727
sI85
((lp2728
F3.8865389823913574
aF29.817244052886963
aF19.40650200843811
aF3.9809000492095947
aF3.9835689067840576
a(lp2729
g3
(g7
S'\r\xc5\x88q\x88\xa2m@'
p2730
tp2731
Rp2732
ag3
(g7
S'\xc0N\xb9\xf9\xb9Jm@'
p2733
tp2734
Rp2735
ag3
(g7
S'\x19\x8d=@-Zm@'
p2736
tp2737
Rp2738
ag3
(g7
S'\xf3\x14*\xe96\x8cm@'
p2739
tp2740
Rp2741
ag3
(g7
S'o\x07#S\x1e\xaam@'
p2742
tp2743
Rp2744
aN(lp2745
g3
(g7
S'\x9e@\x92\xbanTlU'
p2746
tp2747
Rp2748
ag3
(g7
S'\xa2\x08k\xb4\xeb\x19lU'
p2749
tp2750
Rp2751
ag3
(g7
S'ahj+\x94\xfekU'
p2752
tp2753
Rp2754
ag3
(g7
S'N\x80q\xdb4\xfbkU'
p2755
tp2756
Rp2757
ag3
(g7
S'\xf9*]\\\xc4\xf7kU'
p2758
tp2759
Rp2760
atp2761
sI86
((lp2762
F3.915756940841675
aF1.4017407894134521
aF48.03645300865173
aF7.8276848793029785
aF9.07479214668274
a(lp2763
g3
(g7
S'{mt\x88C3n@'
p2764
tp2765
Rp2766
ag3
(g7
S'\x92\xac\xb0\x88|\x92n@'
p2767
tp2768
Rp2769
ag3
(g7
S'\xe1\xe9\xf3e\xc7\xc9m@'
p2770
tp2771
Rp2772
ag3
(g7
S'\xc4\xbe\n\x0eY\x06n@'
p2773
tp2774
Rp2775
ag3
(g7
S'"\x1d\xce\x01\xa1\x02n@'
p2776
tp2777
Rp2778
aN(lp2779
g3
(g7
S'HG\xc1\xc3;%\xd4U'
p2780
tp2781
Rp2782
ag3
(g7
S'\xa1\xb5\x7f{u#\xd4U'
p2783
tp2784
Rp2785
ag3
(g7
S'\xebf}\n\xe5\xf5\xd3U'
p2786
tp2787
Rp2788
ag3
(g7
S'!\xb1x\xa7\x9a\xef\xd3U'
p2789
tp2790
Rp2791
ag3
(g7
S'\xfe\x14`\xc2l\xee\xd3U'
p2792
tp2793
Rp2794
atp2795
sI87
((lp2796
F5.885984897613525
aF4.4899208545684814
aF7.390477895736694
aF6.840043067932129
aF21.89503502845764
a(lp2797
g3
(g7
S'\xbd,4@\x9esn@'
p2798
tp2799
Rp2800
ag3
(g7
S"\xcd'\xf2+\x8bzn@"
p2801
tp2802
Rp2803
ag3
(g7
S'k\x0b\xfcO\xa0~n@'
p2804
tp2805
Rp2806
ag3
(g7
S'?`\xdd.\x0fkn@'
p2807
tp2808
Rp2809
ag3
(g7
S'\x08\xf4Y\xab\xd9Vn@'
p2810
tp2811
Rp2812
aN(lp2813
g3
(g7
S'\xd3W\xe3\xf72\x17\x1aV'
p2814
tp2815
Rp2816
ag3
(g7
S'\xdabQI\xc2\x12\x1aV'
p2817
tp2818
Rp2819
ag3
(g7
S"\x8b\x7f\x00j'\x0c\x1aV"
p2820
tp2821
Rp2822
ag3
(g7
S'\x0e\xce\xea\x17\xdb\x03\x1aV'
p2823
tp2824
Rp2825
ag3
(g7
S'\x81\x10\xfa\x8b\xf0\xf3\x19V'
p2826
tp2827
Rp2828
atp2829
sI88
((lp2830
F1.6310479640960693
aF4.389384031295776
aF41.292306900024414
aF8.489206075668335
aF5.672262191772461
a(lp2831
g3
(g7
S'\x08\x86\xf6u6^o@'
p2832
tp2833
Rp2834
ag3
(g7
S'\x08b\xc61\xd5Ao@'
p2835
tp2836
Rp2837
ag3
(g7
S'\xd3e3\xdbv\xeen@'
p2838
tp2839
Rp2840
ag3
(g7
S'\xca\xcb\x10\xf9X\ro@'
p2841
tp2842
Rp2843
ag3
(g7
S'\xc6$\xeb\xcb\xbd\x04o@'
p2844
tp2845
Rp2846
aN(lp2847
g3
(g7
S'\xefOq\xe3\x1b[\x92V'
p2848
tp2849
Rp2850
ag3
(g7
S'{\x86\xaesgX\x92V'
p2851
tp2852
Rp2853
ag3
(g7
S'O\xf1N\x9c\x14=\x92V'
p2854
tp2855
Rp2856
ag3
(g7
S'\x88x\xb9\xc5\xc17\x92V'
p2857
tp2858
Rp2859
ag3
(g7
S'rL\x85\x82\x824\x92V'
p2860
tp2861
Rp2862
atp2863
sI89
((lp2864
F45.15786814689636
aF12.38140606880188
aF3.5397400856018066
aF12.026252031326294
aF6.98921799659729
a(lp2865
g3
(g7
S'\xba\xe0}y\x9fWo@'
p2866
tp2867
Rp2868
ag3
(g7
S'\xc5\xc2\xc0b!yo@'
p2869
tp2870
Rp2871
ag3
(g7
S'\xe0\xf4\x1e\xd9\xba\xaeo@'
p2872
tp2873
Rp2874
ag3
(g7
S'\xc5\xb7#PO\x85o@'
p2875
tp2876
Rp2877
ag3
(g7
S'V\xac\xaf\x95\x94\x90o@'
p2878
tp2879
Rp2880
aN(lp2881
g3
(g7
S'T\xc9j\x90\xcb"\xe7V'
p2882
tp2883
Rp2884
ag3
(g7
S'\x1a\xc4\xc7\xff\x81\x18\xe7V'
p2885
tp2886
Rp2887
ag3
(g7
S'S\xefjFl\x18\xe7V'
p2888
tp2889
Rp2890
ag3
(g7
S'.\xfb\xdd\xe9\x88\x11\xe7V'
p2891
tp2892
Rp2893
ag3
(g7
S'7(Q\xc0\xec\x10\xe7V'
p2894
tp2895
Rp2896
atp2897
sI90
((lp2898
F16.582031965255737
aF18.317543983459473
aF6.451487064361572
aF1.7309420108795166
aF6.888092041015625
a(lp2899
g3
(g7
S'\x8aW\x8fT\x11\xbeo@'
p2900
tp2901
Rp2902
ag3
(g7
S'\xbe`s1\xe4\xbfo@'
p2903
tp2904
Rp2905
ag3
(g7
S'\x02\xddLiR\xe4o@'
p2906
tp2907
Rp2908
ag3
(g7
S'\xcfy\x90e\xae\x06p@'
p2909
tp2910
Rp2911
ag3
(g7
S',\xe4l\xf9s\xe8o@'
p2912
tp2913
Rp2914
aN(lp2915
g3
(g7
S'fI\r\xebzj\x1dW'
p2916
tp2917
Rp2918
ag3
(g7
S'HP\x9d\xbb\x0bT\x1dW'
p2919
tp2920
Rp2921
ag3
(g7
S'\x145c?\xccP\x1dW'
p2922
tp2923
Rp2924
ag3
(g7
S'@\x06\xf1u\xc4P\x1dW'
p2925
tp2926
Rp2927
ag3
(g7
S'\x19\x9c\x1d\x95PI\x1dW'
p2928
tp2929
Rp2930
atp2931
sI91
((lp2932
F9.988529920578003
aF28.39504098892212
aF45.71636605262756
aF4.959666967391968
aF11.172861099243164
a(lp2933
g3
(g7
S'\x99\xe1/\xbeL>p@'
p2934
tp2935
Rp2936
ag3
(g7
S'\xcd\x97\x12\x85\xcd$p@'
p2937
tp2938
Rp2939
ag3
(g7
S'YF\xdc\xdd\x1d\x17p@'
p2940
tp2941
Rp2942
ag3
(g7
S'y\x86>\xb8\xce=p@'
p2943
tp2944
Rp2945
ag3
(g7
S'\xeb)\x8a\xc5\x100p@'
p2946
tp2947
Rp2948
aN(lp2949
g3
(g7
S'\xae\x9aJQ:\xf5\x7fW'
p2950
tp2951
Rp2952
ag3
(g7
S']W\xce\xfc\xe1\xd3\x7fW'
p2953
tp2954
Rp2955
ag3
(g7
S'(\xa7h\x8f\xc2\xb5\x7fW'
p2956
tp2957
Rp2958
ag3
(g7
S'\x94\xb2\xe0\xa0\\\xb1\x7fW'
p2959
tp2960
Rp2961
ag3
(g7
S'\xeb\x91\xc7\x98r\xab\x7fW'
p2962
tp2963
Rp2964
atp2965
sI92
((lp2966
F7.505167007446289
aF1.9035961627960205
aF9.760151863098145
aF90.91517996788025
aF72.6410391330719
a(lp2967
g3
(g7
S'\x19D\xebR\x17kp@'
p2968
tp2969
Rp2970
ag3
(g7
S'\x82\xe8\xa0\xe6\xcd\x99p@'
p2971
tp2972
Rp2973
ag3
(g7
S'>\xc4\x81rxfp@'
p2974
tp2975
Rp2976
ag3
(g7
S'\xfcNgE)Vp@'
p2977
tp2978
Rp2979
ag3
(g7
S'z<\xbb\xa4\xd2Rp@'
p2980
tp2981
Rp2982
aN(lp2983
g3
(g7
S'k\x84\x1d\xbaPB\xe9W'
p2984
tp2985
Rp2986
ag3
(g7
S'\xd8\x8bU\x91L@\xe9W'
p2987
tp2988
Rp2989
ag3
(g7
S'\xd1\xee\xf3\xebD9\xe9W'
p2990
tp2991
Rp2992
ag3
(g7
S'@\x16?_\xb7\x08\xe9W'
p2993
tp2994
Rp2995
ag3
(g7
S'\x8a\xfb\xca\x87\x1c\xfb\xe8W'
p2996
tp2997
Rp2998
atp2999
sI93
((lp3000
F9.886706113815308
aF9.723805904388428
aF11.378051042556763
aF2.3690359592437744
aF7.207783937454224
a(lp3001
g3
(g7
S'\xa4*J\x0fm\xbfp@'
p3002
tp3003
Rp3004
ag3
(g7
S'\x02\xc9*1r\xbap@'
p3005
tp3006
Rp3007
ag3
(g7
S'\xf0<(\xc7k\xb3p@'
p3008
tp3009
Rp3010
ag3
(g7
S'7\xff\xbd\x94\x8c\xccp@'
p3011
tp3012
Rp3013
ag3
(g7
S'w\x03\xa0H\xbf\xbap@'
p3014
tp3015
Rp3016
aN(lp3017
g3
(g7
S'\x0b\xa0\x07\xdd\xf8\xbb@X'
p3018
tp3019
Rp3020
ag3
(g7
S'\xd4\xbek\x9d\\\xb6@X'
p3021
tp3022
Rp3023
ag3
(g7
S'\xd1\xd5\xcb\x92\xa2\xaf@X'
p3024
tp3025
Rp3026
ag3
(g7
S'#\x7f\xc39\xdf\xad@X'
p3027
tp3028
Rp3029
ag3
(g7
S'+\xc0Q-\xcf\xa8@X'
p3030
tp3031
Rp3032
atp3033
sI94
((lp3034
F8.02970004081726
aF63.31176996231079
aF1.9108521938323975
aF11.190057039260864
aF43.34478402137756
a(lp3035
g3
(g7
S'\x87#]gu\xf4p@'
p3036
tp3037
Rp3038
ag3
(g7
S'/\xc7rS\x11\xd6p@'
p3039
tp3040
Rp3041
ag3
(g7
S'\xf5\xc5{tW\x08q@'
p3042
tp3043
Rp3044
ag3
(g7
S'\xdb\xf1\xe6\xce\xf6\xf0p@'
p3045
tp3046
Rp3047
ag3
(g7
S'Cg\\\xdd\xf2\xdap@'
p3048
tp3049
Rp3050
aN(lp3051
g3
(g7
S'\x9f\x8a\xa6\x00\xf25\x9cX'
p3052
tp3053
Rp3054
ag3
(g7
S"X'i\xa4\xda\t\x9cX"
p3055
tp3056
Rp3057
ag3
(g7
S't\x01\x1a\x14\xd1\t\x9cX'
p3058
tp3059
Rp3060
ag3
(g7
S'\x8co#@\xad\x04\x9cX'
p3061
tp3062
Rp3063
ag3
(g7
S'8\xe4\x05u%\xf9\x9bX'
p3064
tp3065
Rp3066
atp3067
sI95
((lp3068
F12.222586870193481
aF4.52337908744812
aF2.130155086517334
aF4.219487905502319
aF2.1369030475616455
a(lp3069
g3
(g7
S'\x8a^\x05\xcey6q@'
p3070
tp3071
Rp3072
ag3
(g7
S'\xc6v\xa3\xa8\xf2Fq@'
p3073
tp3074
Rp3075
ag3
(g7
S'\x0c\xe2T\tvaq@'
p3076
tp3077
Rp3078
ag3
(g7
S'?\x91\xbe\xe4`Tq@'
p3079
tp3080
Rp3081
ag3
(g7
S'\xb2\x82\xe1\x80\x8f\x86q@'
p3082
tp3083
Rp3084
aN(lp3085
g3
(g7
S'\xc5\x8fi\xba\x97\x18\xfdX'
p3086
tp3087
Rp3088
ag3
(g7
S'\\a\xdd*\x02\x13\xfdX'
p3089
tp3090
Rp3091
ag3
(g7
S'<uyL\x92\x12\xfdX'
p3092
tp3093
Rp3094
ag3
(g7
S'\xb0c\x951?\x0e\xfdX'
p3095
tp3096
Rp3097
ag3
(g7
S'\xba\xea; A\r\xfdX'
p3098
tp3099
Rp3100
atp3101
sI96
((lp3102
F53.586053133010864
aF5.0297691822052
aF11.576133012771606
aF21.027644157409668
aF2.0595481395721436
a(lp3103
g3
(g7
S'\x0e!z\xb9\x9aFq@'
p3104
tp3105
Rp3106
ag3
(g7
S'oaEy vq@'
p3107
tp3108
Rp3109
ag3
(g7
S'\x84\t\xa0\x1d#fq@'
p3110
tp3111
Rp3112
ag3
(g7
S'w\xba\xd7\xe1\xaeWq@'
p3113
tp3114
Rp3115
ag3
(g7
S'\xc9\x13|\xc9\xa1mq@'
p3116
tp3117
Rp3118
aN(lp3119
g3
(g7
S'K\xae%\xe8\xe2b7Y'
p3120
tp3121
Rp3122
ag3
(g7
S'Y|\xf0\xe9\x89_7Y'
p3123
tp3124
Rp3125
ag3
(g7
S'\xd4\xdf\xbf\xcc9W7Y'
p3126
tp3127
Rp3128
ag3
(g7
S'\xed\xeeP\xcc\xc5K7Y'
p3129
tp3130
Rp3131
ag3
(g7
S'\x06%c\xab\xc4K7Y'
p3132
tp3133
Rp3134
atp3135
sI97
((lp3136
F6.607258081436157
aF9.337392091751099
aF26.85868811607361
aF11.327077865600586
aF55.142462968826294
a(lp3137
g3
(g7
S'\x0c\xaf-;\xc8\xbaq@'
p3138
tp3139
Rp3140
ag3
(g7
S'Q\xa0\xa6<\x9b\xacq@'
p3141
tp3142
Rp3143
ag3
(g7
S'Q\xf2\xf1$\xd2\xa4q@'
p3144
tp3145
Rp3146
ag3
(g7
S'\xe9\xc7t\xc6\xf2\xaaq@'
p3147
tp3148
Rp3149
ag3
(g7
S'\n\xb5eu\xd1\x93q@'
p3150
tp3151
Rp3152
aN(lp3153
g3
(g7
S'\xed\x9fc\x05v\xe8\xa8Y'
p3154
tp3155
Rp3156
ag3
(g7
S'\x80Ec\xa2v\xda\xa8Y'
p3157
tp3158
Rp3159
ag3
(g7
S'xz\x08\xf9\xd7\xc7\xa8Y'
p3160
tp3161
Rp3162
ag3
(g7
S'\xadJn\x80,\xc0\xa8Y'
p3163
tp3164
Rp3165
ag3
(g7
S'=\xc8\xe0\x1f0\xad\xa8Y'
p3166
tp3167
Rp3168
atp3169
sI98
((lp3170
F13.737713098526001
aF45.86142706871033
aF2.2449140548706055
aF18.735887050628662
aF4.667140960693359
a(lp3171
g3
(g7
S'\xcb\xa2\xf9g\x99\xe3q@'
p3172
tp3173
Rp3174
ag3
(g7
S'\xbf\x87\xd3\xc67\xccq@'
p3175
tp3176
Rp3177
ag3
(g7
S'DM4.\x8e\xe9q@'
p3178
tp3179
Rp3180
ag3
(g7
S'\xdf\xef\xa2\xcd\x96\xd5q@'
p3181
tp3182
Rp3183
ag3
(g7
S'\xa4\xb4-\xfc\xcd\xebq@'
p3184
tp3185
Rp3186
aN(lp3187
g3
(g7
S'\x04m\x8b\xfd\xbe\x9f\xecY'
p3188
tp3189
Rp3190
ag3
(g7
S'\xff \x8a\n\xd0\x83\xecY'
p3191
tp3192
Rp3193
ag3
(g7
S'\x8eE\xd9\x9e]\x82\xecY'
p3194
tp3195
Rp3196
ag3
(g7
S'#~\x01\x913z\xecY'
p3197
tp3198
Rp3199
ag3
(g7
S'?\x90\xe6\x8b!z\xecY'
p3200
tp3201
Rp3202
atp3203
sI99
((lp3204
F2.425539016723633
aF3.4083151817321777
aF9.906321048736572
aF16.466345071792603
aF45.34897994995117
a(lp3205
g3
(g7
S'0j\xa7\x90\x18Er@'
p3206
tp3207
Rp3208
ag3
(g7
S'<\xe9\x08U\xaf\x1er@'
p3209
tp3210
Rp3211
ag3
(g7
S'_R.+\xa7+r@'
p3212
tp3213
Rp3214
ag3
(g7
S'\x85\xc0-\xe5\xab)r@'
p3215
tp3216
Rp3217
ag3
(g7
S',\x8d\xcd=}\tr@'
p3218
tp3219
Rp3220
aN(lp3221
g3
(g7
S'\x83\xa6{K3\xd5PZ'
p3222
tp3223
Rp3224
ag3
(g7
S'\x8d\x82\x8c\xa2T\xd3PZ'
p3225
tp3226
Rp3227
ag3
(g7
S'\xa1fe\xe3D\xcfPZ'
p3228
tp3229
Rp3230
ag3
(g7
S'\xb3=\xceu\x9d\xcaPZ'
p3231
tp3232
Rp3233
ag3
(g7
S',\x01V\x97\xcf\xbePZ'
p3234
tp3235
Rp3236
atp3237
sI100
((lp3238
F16.014876127243042
aF10.42155408859253
aF15.061992883682251
aF24.521934986114502
aF7.129909992218018
a(lp3239
g3
(g7
S'Hl\x98\xd8\xd4Ar@'
p3240
tp3241
Rp3242
ag3
(g7
S'i\x14\xbef\xebCr@'
p3243
tp3244
Rp3245
ag3
(g7
S'\x18rN\xd4\x94Lr@'
p3246
tp3247
Rp3248
ag3
(g7
S'#\x19g1\xd4Ar@'
p3249
tp3250
Rp3251
ag3
(g7
S'U\xf6E\xea\xf3er@'
p3252
tp3253
Rp3254
aN(lp3255
g3
(g7
S'\xc4[e\xc4@h\x8aZ'
p3256
tp3257
Rp3258
ag3
(g7
S'\xcd\x90F\x04\xe2b\x8aZ'
p3259
tp3260
Rp3261
ag3
(g7
S'\xe7SX\xa8\x13X\x8aZ'
p3262
tp3263
Rp3264
ag3
(g7
S'\x81\x92t|\xf9L\x8aZ'
p3265
tp3266
Rp3267
ag3
(g7
S'\xacY\x15\x96=K\x8aZ'
p3268
tp3269
Rp3270
atp3271
sI101
((lp3272
F65.1824209690094
aF20.59930419921875
aF23.412295818328857
aF52.81691098213196
aF10.865766048431396
a(lp3273
g3
(g7
S'\xa1Ty})yr@'
p3274
tp3275
Rp3276
ag3
(g7
S'\xd4\x8dWF\xaf\x8fr@'
p3277
tp3278
Rp3279
ag3
(g7
S'\xe0\xe9\xb0\xee\x88\x93r@'
p3280
tp3281
Rp3282
ag3
(g7
S'\xda\x00<\x9c<\x81r@'
p3283
tp3284
Rp3285
ag3
(g7
S'\xc4Ug\xb2\xb7\x9dr@'
p3286
tp3287
Rp3288
aN(lp3289
g3
(g7
S'q\xa7X\x85Kg\xf9Z'
p3290
tp3291
Rp3292
ag3
(g7
S'\x0b\x0c8\xdbJ^\xf9Z'
p3293
tp3294
Rp3295
ag3
(g7
S'\x14={\x02\xb6Z\xf9Z'
p3296
tp3297
Rp3298
ag3
(g7
S'W\x93K\xcc\xd0L\xf9Z'
p3299
tp3300
Rp3301
ag3
(g7
S'\xd7\xdbH\xb7DL\xf9Z'
p3302
tp3303
Rp3304
atp3305
sI102
((lp3306
F33.63071012496948
aF2.5104849338531494
aF32.61267805099487
aF2.6493608951568604
aF20.805306911468506
a(lp3307
g3
(g7
S'V\xb0\x8d\x1d\xe3\xd5r@'
p3308
tp3309
Rp3310
ag3
(g7
S'2h\x14\x94\xab\xf5r@'
p3311
tp3312
Rp3313
ag3
(g7
S'oFrN\xf0\xd8r@'
p3314
tp3315
Rp3316
ag3
(g7
S':7\xa2\xcd\x8b\x18s@'
p3317
tp3318
Rp3319
ag3
(g7
S'\x94O\x1f\x87\xcf\xdcr@'
p3320
tp3321
Rp3322
aN(lp3323
g3
(g7
S'\xfa\xcd\xdc\xbcK\x8ae['
p3324
tp3325
Rp3326
ag3
(g7
S'\xbc\x13\xd9MF\x8ae['
p3327
tp3328
Rp3329
ag3
(g7
S'\xbaCK\xb9\x8e\x81e['
p3330
tp3331
Rp3332
ag3
(g7
S'\xa5\xbb5\x99U\x80e['
p3333
tp3334
Rp3335
ag3
(g7
S'\xd29w\xf0]ye['
p3336
tp3337
Rp3338
atp3339
sI103
((lp3340
F29.465328216552734
aF17.36328911781311
aF13.254855871200562
aF11.601353168487549
aF28.9235680103302
a(lp3341
g3
(g7
S'\x88\xd2\xdbb\xfb\x12s@'
p3342
tp3343
Rp3344
ag3
(g7
S'\xbf\x83\x042\x91 s@'
p3345
tp3346
Rp3347
ag3
(g7
S'\xfa\x8f\xae,\x92\x1ds@'
p3348
tp3349
Rp3350
ag3
(g7
S'7\x98)J\xe6$s@'
p3351
tp3352
Rp3353
ag3
(g7
S'\xaf\xcc\n\x87$\x0fs@'
p3354
tp3355
Rp3356
aN(lp3357
g3
(g7
S'I\xd6}\xb5\x13\x19\xc4['
p3358
tp3359
Rp3360
ag3
(g7
S'?\xa9\xabfO\x13\xc4['
p3361
tp3362
Rp3363
ag3
(g7
S'@\xdeF\xd3?\x0f\xc4['
p3364
tp3365
Rp3366
ag3
(g7
S'\xf5\xe2\xc2\x85w\n\xc4['
p3367
tp3368
Rp3369
ag3
(g7
S'qB\x15\t[\x01\xc4['
p3370
tp3371
Rp3372
atp3373
sI104
((lp3374
F7.605112075805664
aF2.916349172592163
aF29.78204607963562
aF12.738036155700684
aF9.637696027755737
a(lp3375
g3
(g7
S'\x1dK8i\xf4ws@'
p3376
tp3377
Rp3378
ag3
(g7
S'L\xfa61\x00\x85s@'
p3379
tp3380
Rp3381
ag3
(g7
S'\xb9Y\xa2\x94\xc9Ts@'
p3382
tp3383
Rp3384
ag3
(g7
S'\x13\xebbONcs@'
p3385
tp3386
Rp3387
ag3
(g7
S'\xce\xb4s(\xba_s@'
p3388
tp3389
Rp3390
aN(lp3391
g3
(g7
S'k^_k\xbaj\x13\\'
p3392
tp3393
Rp3394
ag3
(g7
S'0\xeba\x16\xa4i\x13\\'
p3395
tp3396
Rp3397
ag3
(g7
S'\xd1\xe0\xa5\xda\x99^\x13\\'
p3398
tp3399
Rp3400
ag3
(g7
S'b\x8c\x7fJ0Z\x13\\'
p3401
tp3402
Rp3403
ag3
(g7
S'8\x8e\x99\xa7\x83W\x13\\'
p3404
tp3405
Rp3406
atp3407
sI105
((lp3408
F14.058708906173706
aF21.79693603515625
aF11.013813972473145
aF8.340866088867188
aF9.15924596786499
a(lp3409
g3
(g7
S'"\xa47N\x85\x98s@'
p3410
tp3411
Rp3412
ag3
(g7
S'\xa5\x88[v\xeb\x8as@'
p3413
tp3414
Rp3415
ag3
(g7
S'\x14\xc9\xff\x10\x17\x93s@'
p3416
tp3417
Rp3418
ag3
(g7
S'\xe8\xaf\x89\x0c\x10\xa2s@'
p3419
tp3420
Rp3421
ag3
(g7
S'\xdd%\xc7\xf1\x9a\x92s@'
p3422
tp3423
Rp3424
aN(lp3425
g3
(g7
S'd\xa7\xd2\n\xf3xa\\'
p3426
tp3427
Rp3428
ag3
(g7
S'\xbe\x84\xea\xc4\xa3ra\\'
p3429
tp3430
Rp3431
ag3
(g7
S'\xd2\xa2\x0c\x93}pa\\'
p3432
tp3433
Rp3434
ag3
(g7
S'\xe9\xeb\xd6\xef?oa\\'
p3435
tp3436
Rp3437
ag3
(g7
S'a\xfc\xc6\xb2{ma\\'
p3438
tp3439
Rp3440
atp3441
sI106
((lp3442
F3.063291072845459
aF2.94549298286438
aF10.191356182098389
aF13.952835083007812
aF19.844225883483887
a(lp3443
g3
(g7
S'\xfd\xc4r\xec)\x05t@'
p3444
tp3445
Rp3446
ag3
(g7
S'\xc5b\xc9z[\x0ct@'
p3447
tp3448
Rp3449
ag3
(g7
S'\xe1\x16?\x81\xd1\xfas@'
p3450
tp3451
Rp3452
ag3
(g7
S'Y~\xad\xbd\xbb\xdds@'
p3453
tp3454
Rp3455
ag3
(g7
S'\xdb\n\x9d(\x89\xe6s@'
p3456
tp3457
Rp3458
aN(lp3459
g3
(g7
S'\xa6\xf8\xf7\xa8\x92\x1b\xe2\\'
p3460
tp3461
Rp3462
ag3
(g7
S'\xe5\xad~&\x94\x1a\xe2\\'
p3463
tp3464
Rp3465
ag3
(g7
S'\xab\x82\x02\xa2<\x17\xe2\\'
p3466
tp3467
Rp3468
ag3
(g7
S'\x1b\xa6\xc3\x91@\x12\xe2\\'
p3469
tp3470
Rp3471
ag3
(g7
S'\xcf\xee\xf0\x840\r\xe2\\'
p3472
tp3473
Rp3474
atp3475
sI107
((lp3476
F16.06124210357666
aF6.4058520793914795
aF9.525645017623901
aF63.415634870529175
aF3.7016940116882324
a(lp3477
g3
(g7
S']\xae^\x90W$t@'
p3478
tp3479
Rp3480
ag3
(g7
S'rr\xb0=\xfb3t@'
p3481
tp3482
Rp3483
ag3
(g7
S"\x8a9y\xc0\xc4't@"
p3484
tp3485
Rp3486
ag3
(g7
S'\x11\xa5\xa1\x15\xb7\x11t@'
p3487
tp3488
Rp3489
ag3
(g7
S"\xc9\xd5\x07<'4t@"
p3490
tp3491
Rp3492
aN(lp3493
g3
(g7
S'\xff\xfa\x95\x7f\xecz5]'
p3494
tp3495
Rp3496
ag3
(g7
S'cm\xa4\xeb\x0cx5]'
p3497
tp3498
Rp3499
ag3
(g7
S'\x8a\xfb\xc2E\x8cs5]'
p3500
tp3501
Rp3502
ag3
(g7
S'M6\xaa<\x0bd5]'
p3503
tp3504
Rp3505
ag3
(g7
S'u\xae\x7f\xd5\x05d5]'
p3506
tp3507
Rp3508
atp3509
sI108
((lp3510
F26.188227891921997
aF207.9434950351715
aF17.196791887283325
aF25.623528957366943
aF6.4044029712677
a(lp3511
g3
(g7
S'H?\x9d^"]t@'
p3512
tp3513
Rp3514
ag3
(g7
S'\x9br\x9c\x17\xd0=t@'
p3515
tp3516
Rp3517
ag3
(g7
S'I\x0e\xc7\xb8\xc1ft@'
p3518
tp3519
Rp3520
ag3
(g7
S'\x8c$\x15\xc2\xa5Zt@'
p3521
tp3522
Rp3523
ag3
(g7
S'\xff\xe59\xa2)wt@'
p3524
tp3525
Rp3526
aN(lp3527
g3
(g7
S'\xcc\x15\xc3(\xb1\xc5\x8b]'
p3528
tp3529
Rp3530
ag3
(g7
S'}gz:\xca\x93\x8b]'
p3531
tp3532
Rp3533
ag3
(g7
S'^K4\x13\xbb\x90\x8b]'
p3534
tp3535
Rp3536
ag3
(g7
S'5c\xcfb\xfa\x8c\x8b]'
p3537
tp3538
Rp3539
ag3
(g7
S'\xa9q\xfe1\xaf\x8c\x8b]'
p3540
tp3541
Rp3542
atp3543
sI109
((lp3544
F29.285176992416382
aF3.2568130493164062
aF29.45987296104431
aF21.08951997756958
aF86.97580409049988
a(lp3545
g3
(g7
S'\xc6C\xd8\xf8@\x94t@'
p3546
tp3547
Rp3548
ag3
(g7
S"'A\xd0J\x8f\xb3t@"
p3549
tp3550
Rp3551
ag3
(g7
S'8\xfc\x02\xbb\x0e\x96t@'
p3552
tp3553
Rp3554
ag3
(g7
S'C1qL?\x9dt@'
p3555
tp3556
Rp3557
ag3
(g7
S'W\x97\xb8\xbd\x13\x83t@'
p3558
tp3559
Rp3560
aN(lp3561
g3
(g7
S'\xb3\xc8H\xfbd\xae\xe4]'
p3562
tp3563
Rp3564
ag3
(g7
S'\xb3\xf4\xb7\x11$\xae\xe4]'
p3565
tp3566
Rp3567
ag3
(g7
S'd\x89\x9c,\x18\xa9\xe4]'
p3568
tp3569
Rp3570
ag3
(g7
S'\xce\xcf\xcaj\x8e\xa5\xe4]'
p3571
tp3572
Rp3573
ag3
(g7
S'\xdd,^\x87\xde\x98\xe4]'
p3574
tp3575
Rp3576
atp3577
sI110
((lp3578
F5.263494968414307
aF12.194106101989746
aF15.482264041900635
aF12.2015540599823
aF28.866964101791382
a(lp3579
g3
(g7
S's"/+^\xdat@'
p3580
tp3581
Rp3582
ag3
(g7
S'\xedwIYJ\xddt@'
p3583
tp3584
Rp3585
ag3
(g7
S'\xc0\xfcYo{\xd5t@'
p3586
tp3587
Rp3588
ag3
(g7
S'\x98k\x90\x10T\xe2t@'
p3589
tp3590
Rp3591
ag3
(g7
S'T\x0c\xab\xd7\xf6\xcft@'
p3592
tp3593
Rp3594
aN(lp3595
g3
(g7
S'\x81\xbeC\x15\x06P1^'
p3596
tp3597
Rp3598
ag3
(g7
S'\xa9\x12\xd5~PM1^'
p3599
tp3600
Rp3601
ag3
(g7
S'F\xe5\x01H\xe2H1^'
p3602
tp3603
Rp3604
ag3
(g7
S'V0\xb6\x8f\xa7F1^'
p3605
tp3606
Rp3607
ag3
(g7
S'\x91Z5\xe3\x8bC1^'
p3608
tp3609
Rp3610
atp3611
sI111
((lp3612
F4.177954912185669
aF60.148569107055664
aF10.924443006515503
aF45.49585795402527
aF59.07903504371643
a(lp3613
g3
(g7
S'\xa6\xf2\x13w08u@'
p3614
tp3615
Rp3616
ag3
(g7
S'&\xfa\xbd\xafI\x1eu@'
p3617
tp3618
Rp3619
ag3
(g7
S'lE-\xd4n5u@'
p3620
tp3621
Rp3622
ag3
(g7
S'S\x98.\xe7 %u@'
p3623
tp3624
Rp3625
ag3
(g7
S'\x1a\xa0:\xefs\x19u@'
p3626
tp3627
Rp3628
aN(lp3629
g3
(g7
S't{\x1f\xc5\x1c_\xb4^'
p3630
tp3631
Rp3632
ag3
(g7
S'\x91PO>\xbdP\xb4^'
p3633
tp3634
Rp3635
ag3
(g7
S'\xe5\x7f\xd5_JN\xb4^'
p3636
tp3637
Rp3638
ag3
(g7
S'\x9e\xb1Xl;E\xb4^'
p3639
tp3640
Rp3641
ag3
(g7
S'\xe4Hp\xd3):\xb4^'
p3642
tp3643
Rp3644
atp3645
sI112
((lp3646
F42.71299195289612
aF3.746326208114624
aF37.20072793960571
aF20.791274070739746
aF18.70388698577881
a(lp3647
g3
(g7
S'3\x10]\x0c\xc6>u@'
p3648
tp3649
Rp3650
ag3
(g7
S'\xbf\xa6\xe6\xeeD\x8eu@'
p3651
tp3652
Rp3653
ag3
(g7
S'`\x87XH\x19>u@'
p3654
tp3655
Rp3656
ag3
(g7
S'\xc7l8\xa1\x85Qu@'
p3657
tp3658
Rp3659
ag3
(g7
S'\xabh\x8f\x8f\xd2Pu@'
p3660
tp3661
Rp3662
aN(lp3663
g3
(g7
S'\x85\xee\x8b\x18\x91\x7f\xe4^'
p3664
tp3665
Rp3666
ag3
(g7
S'Zp\xb1{,\x7f\xe4^'
p3667
tp3668
Rp3669
ag3
(g7
S'\xc4!\x9eB\xd1t\xe4^'
p3670
tp3671
Rp3672
ag3
(g7
S'J4\x02<\xf5s\xe4^'
p3673
tp3674
Rp3675
ag3
(g7
S'\x1b\xca\x03\x11{m\xe4^'
p3676
tp3677
Rp3678
atp3679
sI113
((lp3680
F5.39364218711853
aF8.338176012039185
aF22.494058847427368
aF35.24806594848633
aF112.43453907966614
a(lp3681
g3
(g7
S':\xcf/u\x13\xc3u@'
p3682
tp3683
Rp3684
ag3
(g7
S'On\x98\x9b\xdb\xa8u@'
p3685
tp3686
Rp3687
ag3
(g7
S'\x127\x87i\xf8\x9du@'
p3688
tp3689
Rp3690
ag3
(g7
S'\x0f\x8do\xbd\x00\x97u@'
p3691
tp3692
Rp3693
ag3
(g7
S'\x00\tE\xf4\xf1\x83u@'
p3694
tp3695
Rp3696
aN(lp3697
g3
(g7
S'\x87:\xaf\xc6\xe7~X_'
p3698
tp3699
Rp3700
ag3
(g7
S'E\xcc\xb6\x18\tzX_'
p3701
tp3702
Rp3703
ag3
(g7
S'\x0e\x99\x85\x89/rX_'
p3704
tp3705
Rp3706
ag3
(g7
S')\x0er\x1e\xc3dX_'
p3707
tp3708
Rp3709
ag3
(g7
S'\xbe\x84\xe0.\xbeQX_'
p3710
tp3711
Rp3712
atp3713
sI114
((lp3714
F26.329353094100952
aF29.269507884979248
aF46.220444202423096
aF16.29430890083313
aF8.286565780639648
a(lp3715
g3
(g7
S';30\x06!\xe8u@'
p3716
tp3717
Rp3718
ag3
(g7
S'Aq\xbb\xa0\xe2\xe6u@'
p3719
tp3720
Rp3721
ag3
(g7
S'\xbd\xaa{\xf6=\xd7u@'
p3722
tp3723
Rp3724
ag3
(g7
S'\x0e V7\xe5\xe6u@'
p3725
tp3726
Rp3727
ag3
(g7
S"'\xf9{a~\xffu@"
p3728
tp3729
Rp3730
aN(lp3731
g3
(g7
S'8I[|\x802\xb6_'
p3732
tp3733
Rp3734
ag3
(g7
S'(l\xde\xcf\xaf*\xb6_'
p3735
tp3736
Rp3737
ag3
(g7
S'V\xe0yA\x0e!\xb6_'
p3738
tp3739
Rp3740
ag3
(g7
S"}\xa7\xe4\xcb' \xb6_"
p3741
tp3742
Rp3743
ag3
(g7
S'\xfbf\x1f\x15\x9f\x1f\xb6_'
p3744
tp3745
Rp3746
atp3747
sI115
((lp3748
F9.384520053863525
aF4.272073984146118
aF10.08146595954895
aF71.96835994720459
aF41.56562900543213
a(lp3749
g3
(g7
S';\xe4\xe7\xadf8v@'
p3750
tp3751
Rp3752
ag3
(g7
S'\xb6\xeb\x86>\xf9Dv@'
p3753
tp3754
Rp3755
ag3
(g7
S'Ku6\xe0\x98&v@'
p3756
tp3757
Rp3758
ag3
(g7
S'\xc6\xc0\xd6|\xd9\tv@'
p3759
tp3760
Rp3761
ag3
(g7
S'\x967\xc2\x05Z\x12v@'
p3762
tp3763
Rp3764
aN(lp3765
g3
(g7
S'\x81b[\x92\xfb\x8b\x10`'
p3766
tp3767
Rp3768
ag3
(g7
S'g\xf7\x8ea\x8b\x8b\x10`'
p3769
tp3770
Rp3771
ag3
(g7
S')q\x01$\xab\x89\x10`'
p3772
tp3773
Rp3774
ag3
(g7
S'\xbc`\x85J*}\x10`'
p3775
tp3776
Rp3777
ag3
(g7
S'\xba\x1f\x88\xe1\xddw\x10`'
p3778
tp3779
Rp3780
atp3781
sI116
((lp3782
F15.02816104888916
aF24.21219515800476
aF7.3456690311431885
aF4.49000883102417
aF19.25139093399048
a(lp3783
g3
(g7
S'4\x0e\x83o\x1d\\v@'
p3784
tp3785
Rp3786
ag3
(g7
S'O\x11\x9b%\x89]v@'
p3787
tp3788
Rp3789
ag3
(g7
S'\xd0>R#\xcbzv@'
p3790
tp3791
Rp3792
ag3
(g7
S'\x82\x97/D\xe5\x89v@'
p3793
tp3794
Rp3795
ag3
(g7
S'\x1eGmJ\xe7tv@'
p3796
tp3797
Rp3798
aN(lp3799
g3
(g7
S'\x87\xb8\xb3r\xbc4r`'
p3800
tp3801
Rp3802
ag3
(g7
S'|\x8e$\xbcr0r`'
p3803
tp3804
Rp3805
ag3
(g7
S'\xee\x08\xe7\xd4"/r`'
p3806
tp3807
Rp3808
ag3
(g7
S'J\xd9HU2.r`'
p3809
tp3810
Rp3811
ag3
(g7
S'71\xab\xbf6+r`'
p3812
tp3813
Rp3814
atp3815
sI117
((lp3816
F15.560765027999878
aF8.902379989624023
aF8.853633165359497
aF55.929808139801025
aF73.91299605369568
a(lp3817
g3
(g7
S'\xbb\xe7kr\xff\xa2v@'
p3818
tp3819
Rp3820
ag3
(g7
S')\xca\xf0\xde\xdd\xc6v@'
p3821
tp3822
Rp3823
ag3
(g7
S'\x99\xe8x<\x10\xd3v@'
p3824
tp3825
Rp3826
ag3
(g7
S'\xbd}\x0f >\x96v@'
p3827
tp3828
Rp3829
ag3
(g7
S'\xcdv\x06e(\x8ev@'
p3830
tp3831
Rp3832
aN(lp3833
g3
(g7
S'\xd9\xb9\x15\xbf\x81\x96\xce`'
p3834
tp3835
Rp3836
ag3
(g7
S'\x17\x14\xf7_8\x94\xce`'
p3837
tp3838
Rp3839
ag3
(g7
S'\xf5\xc2\xc5\x89\x0e\x93\xce`'
p3840
tp3841
Rp3842
ag3
(g7
S'\xb3u\xce\x1d\x15\x81\xce`'
p3843
tp3844
Rp3845
ag3
(g7
S'"v\xeb\xa0Gs\xce`'
p3846
tp3847
Rp3848
atp3849
sI118
((lp3850
F13.787911891937256
aF34.74610877037048
aF14.206131935119629
aF107.0642478466034
aF18.109694004058838
a(lp3851
g3
(g7
S'\x85\xbf}\xe6@\xf3v@'
p3852
tp3853
Rp3854
ag3
(g7
S'uO\x97\x92\xd8\xecv@'
p3855
tp3856
Rp3857
ag3
(g7
S'\xc2\xa7\xfec\x1c\x00w@'
p3858
tp3859
Rp3860
ag3
(g7
S'\xa8\x03H\x11D\xdav@'
p3861
tp3862
Rp3863
ag3
(g7
S'\x17I\xa4,\xdb\xfdv@'
p3864
tp3865
Rp3866
aN(lp3867
g3
(g7
S'\x87v|\xfe"jAa'
p3868
tp3869
Rp3870
ag3
(g7
S'\xe4\xdd%\x97\xd4eAa'
p3871
tp3872
Rp3873
ag3
(g7
S'\xf8\x18\xd1\x15\xb5dAa'
p3874
tp3875
Rp3876
ag3
(g7
S'\xbb\xfd\xdb\x9cAUAa'
p3877
tp3878
Rp3879
ag3
(g7
S'R\x05\xd1\x8c?TAa'
p3880
tp3881
Rp3882
atp3883
sI119
((lp3884
F25.67506694793701
aF35.3022620677948
aF24.97781801223755
aF18.605758905410767
aF10.861469984054565
a(lp3885
g3
(g7
S'W"&\xa4\x82+w@'
p3886
tp3887
Rp3888
ag3
(g7
S'\x896\x08L\xa0#w@'
p3889
tp3890
Rp3891
ag3
(g7
S'A6\xe8}|4w@'
p3892
tp3893
Rp3894
ag3
(g7
S'\xe59s\xea\x9c6w@'
p3895
tp3896
Rp3897
ag3
(g7
S'}\x9c\xd7\x16MDw@'
p3898
tp3899
Rp3900
aN(lp3901
g3
(g7
S'}\xc6\x07B/{\x93a'
p3902
tp3903
Rp3904
ag3
(g7
S'\xcb\x11{\xfd\x86v\x93a'
p3905
tp3906
Rp3907
ag3
(g7
S'\x89\x8aG\xf7\xf5s\x93a'
p3908
tp3909
Rp3910
ag3
(g7
S'\x83\x8e2)zq\x93a'
p3911
tp3912
Rp3913
ag3
(g7
S'9\x95\xcf\xdc\xbbp\x93a'
p3914
tp3915
Rp3916
atp3917
sI120
((lp3918
F11.843751192092896
aF67.77574801445007
aF39.21079206466675
aF36.22098684310913
aF45.325600147247314
a(lp3919
g3
(g7
S'.\xac5\x88b\x84w@'
p3920
tp3921
Rp3922
ag3
(g7
S'\xfa\x198-/fw@'
p3923
tp3924
Rp3925
ag3
(g7
S'\xdaD\xbc\xadBgw@'
p3926
tp3927
Rp3928
ag3
(g7
S'\xabY\xda\xef\x0bww@'
p3929
tp3930
Rp3931
ag3
(g7
S',K\np}nw@'
p3932
tp3933
Rp3934
aN(lp3935
g3
(g7
S'\xa7\x1c\xdc\xfd\xb4\x10\xfba'
p3936
tp3937
Rp3938
ag3
(g7
S'\xbf\xec\xb3pA\x01\xfba'
p3939
tp3940
Rp3941
ag3
(g7
S'\x93\xdf}BJ\xf8\xfaa'
p3942
tp3943
Rp3944
ag3
(g7
S'n\xf1\x1e\xbf+\xf2\xfaa'
p3945
tp3946
Rp3947
ag3
(g7
S'<gq\xf1z\xef\xfaa'
p3948
tp3949
Rp3950
atp3951
sI121
((lp3952
F6.335275173187256
aF127.09758806228638
aF57.08112716674805
aF26.50216794013977
aF27.166990995407104
a(lp3953
g3
(g7
S'y\x02\x92\xda.\xb5w@'
p3954
tp3955
Rp3956
ag3
(g7
S'\x0b\xa1\x12\xcbX\x8dw@'
p3957
tp3958
Rp3959
ag3
(g7
S'[\x95\xca\xf8\x1a\x95w@'
p3960
tp3961
Rp3962
ag3
(g7
S'\xa6\x80\x01\x12\x85\xa7w@'
p3963
tp3964
Rp3965
ag3
(g7
S'z\xc3\x90\xe8:\x9dw@'
p3966
tp3967
Rp3968
aN(lp3969
g3
(g7
S'fX\x84\xe1\xd8\x92Ab'
p3970
tp3971
Rp3972
ag3
(g7
S'\x8f\xfb\x1c:\x8f\x80Ab'
p3973
tp3974
Rp3975
ag3
(g7
S'gb<\xab9zAb'
p3976
tp3977
Rp3978
ag3
(g7
S'\x9b\xe7\xd4\xea\xa9xAb'
p3979
tp3980
Rp3981
ag3
(g7
S'<\x9d\xb6_\xe9vAb'
p3982
tp3983
Rp3984
atp3985
sI122
((lp3986
F5.5904340744018555
aF53.1460919380188
aF17.021987915039062
aF26.128177881240845
aF42.483590841293335
a(lp3987
g3
(g7
S'\xe8\x19\xcd\t\x8e\x11x@'
p3988
tp3989
Rp3990
ag3
(g7
S',\xf1\xeb\xc7\x06\xd4w@'
p3991
tp3992
Rp3993
ag3
(g7
S'\xa6\x13\xafW\xb3\xedw@'
p3994
tp3995
Rp3996
ag3
(g7
S"Wj\x9c'\xd0\xe1w@"
p3997
tp3998
Rp3999
ag3
(g7
S'\x15?\xd6>\xcf\xdcw@'
p4000
tp4001
Rp4002
aN(lp4003
g3
(g7
S'\xeeZ\x93-\x9d\xc1\x99b'
p4004
tp4005
Rp4006
ag3
(g7
S'\xb84\x83\xf3\x0b\xb7\x99b'
p4007
tp4008
Rp4009
ag3
(g7
S'\xaa\x15\x94\x14\xad\xb3\x99b'
p4010
tp4011
Rp4012
ag3
(g7
S'\x011F\x9d\xec\xaf\x99b'
p4013
tp4014
Rp4015
ag3
(g7
S'\xeb\xe5\xbb+A\xaa\x99b'
p4016
tp4017
Rp4018
atp4019
sI123
((lp4020
F29.116167068481445
aF9.902208805084229
aF77.1744430065155
aF45.05061888694763
aF128.6135492324829
a(lp4021
g3
(g7
S'\x0c\xe7\xd0\xf3\x95\x19x@'
p4022
tp4023
Rp4024
ag3
(g7
S'\xe4\x815\xde\xccPx@'
p4025
tp4026
Rp4027
ag3
(g7
S'\x92)"\x84\xdc\x08x@'
p4028
tp4029
Rp4030
ag3
(g7
S'd`\x7fl\n\x18x@'
p4031
tp4032
Rp4033
ag3
(g7
S'\x8e\x80\x1f\xff\x8b\x11x@'
p4034
tp4035
Rp4036
aN(lp4037
g3
(g7
S'\x0f\xfa\xfeI\xa0\xc5\xf5b'
p4038
tp4039
Rp4040
ag3
(g7
S'\xb7A\xed\xf8\x88\xc3\xf5b'
p4041
tp4042
Rp4043
ag3
(g7
S'/\xf1r)\x14\xb8\xf5b'
p4044
tp4045
Rp4046
ag3
(g7
S'E#D\xca\xd3\xb5\xf5b'
p4047
tp4048
Rp4049
ag3
(g7
S'\x03\xfc\xffX\xfd\xa9\xf5b'
p4050
tp4051
Rp4052
atp4053
sI124
((lp4054
F24.197875022888184
aF167.71605801582336
aF42.775989055633545
aF15.974061965942383
aF11.338146924972534
a(lp4055
g3
(g7
S'\xd9\xc8\x83\x00CRx@'
p4056
tp4057
Rp4058
ag3
(g7
S'.\xfd\xb8\xeb!3x@'
p4059
tp4060
Rp4061
ag3
(g7
S'\xe4\xf1\xd88\x1bJx@'
p4062
tp4063
Rp4064
ag3
(g7
S'\xcdj\xb6<\xf7ex@'
p4065
tp4066
Rp4067
ag3
(g7
S'\xa4&X\xd0\x03nx@'
p4068
tp4069
Rp4070
aN(lp4071
g3
(g7
S"i\xa5\xa4\xdc\x11'@c"
p4072
tp4073
Rp4074
ag3
(g7
S'\xcd\x95\x17@E\x1a@c'
p4075
tp4076
Rp4077
ag3
(g7
S'\x98\xe6\x9al\xe5\x16@c'
p4078
tp4079
Rp4080
ag3
(g7
S'Y\x96m\xdc"\x16@c'
p4081
tp4082
Rp4083
ag3
(g7
S'\xb1t\x83\xed\x9f\x15@c'
p4084
tp4085
Rp4086
atp4087
sI125
((lp4088
F6.24996280670166
aF48.819530963897705
aF19.162943840026855
aF48.365185022354126
aF46.908138036727905
a(lp4089
g3
(g7
S'\xb2\xee\xd9\x9eF\xf5x@'
p4090
tp4091
Rp4092
ag3
(g7
S'\xa3\xf0~\xcf$\xb7x@'
p4093
tp4094
Rp4095
ag3
(g7
S'#\xdc\xb9\xf0.\xc7x@'
p4096
tp4097
Rp4098
ag3
(g7
S'fO|\x9c\xa0\xadx@'
p4099
tp4100
Rp4101
ag3
(g7
S'\xc7\xd9\x888\x8c\xb7x@'
p4102
tp4103
Rp4104
aN(lp4105
g3
(g7
S'<\xbdW\xd5\xdb\x82\xd5c'
p4106
tp4107
Rp4108
ag3
(g7
S'Ys\x90\x9c\xd6{\xd5c'
p4109
tp4110
Rp4111
ag3
(g7
S'\xb8x:\xe9\xf5z\xd5c'
p4112
tp4113
Rp4114
ag3
(g7
S'J-\xbf8\xcau\xd5c'
p4115
tp4116
Rp4117
ag3
(g7
S'\xbd\x04J(5r\xd5c'
p4118
tp4119
Rp4120
atp4121
sI126
((lp4122
F24.40989899635315
aF55.11463713645935
aF58.507508993148804
aF52.904611110687256
aF31.403144121170044
a(lp4123
g3
(g7
S'\x95\x1aRh\xa3\x0ey@'
p4124
tp4125
Rp4126
ag3
(g7
S'(\x18\xcaL\x95\x06y@'
p4127
tp4128
Rp4129
ag3
(g7
S'\xc4\x1a\xd2\xc8\x94\xfax@'
p4130
tp4131
Rp4132
ag3
(g7
S'7P\x9f\x01\xe7\x00y@'
p4133
tp4134
Rp4135
ag3
(g7
S'\x91\xcd\x04i\xee\x0fy@'
p4136
tp4137
Rp4138
aN(lp4139
g3
(g7
S'A\xfa68\x9b\x0bDd'
p4140
tp4141
Rp4142
ag3
(g7
S'ap\xde\x93{\x05Dd'
p4143
tp4144
Rp4145
ag3
(g7
S'\xc8\x9e\xa8\xe3\x18\xfdCd'
p4146
tp4147
Rp4148
ag3
(g7
S'KT\x02\xb1\xa8\xf9Cd'
p4149
tp4150
Rp4151
ag3
(g7
S'\x06\xbeOb\xe7\xf7Cd'
p4152
tp4153
Rp4154
atp4155
sI127
((lp4156
F14.996768951416016
aF47.636914014816284
aF6.423027992248535
aF34.67061495780945
aF48.48383021354675
a(lp4157
g3
(g7
S'\x9f\xe7\xba\xda\xbd^y@'
p4158
tp4159
Rp4160
ag3
(g7
S'dk\x97S\x8a&y@'
p4161
tp4162
Rp4163
ag3
(g7
S'\x97\xb5W\xdd\xd3Ey@'
p4164
tp4165
Rp4166
ag3
(g7
S'5\xce\xdb[\xa06y@'
p4167
tp4168
Rp4169
ag3
(g7
S'\xfeRl\x0be-y@'
p4170
tp4171
Rp4172
aN(lp4173
g3
(g7
S')v\x9a\xcf\xdd\x1f\x84d'
p4174
tp4175
Rp4176
ag3
(g7
S'\xd1\x1e\xcepx\x16\x84d'
p4177
tp4178
Rp4179
ag3
(g7
S'\xaf\x13P\t\xd0\x15\x84d'
p4180
tp4181
Rp4182
ag3
(g7
S'\x86)P\x04c\x12\x84d'
p4183
tp4184
Rp4185
ag3
(g7
S'\x9c\x1eK\xd6\x98\r\x84d'
p4186
tp4187
Rp4188
atp4189
sI128
((lp4190
F18.354238033294678
aF67.39211988449097
aF71.79309797286987
aF65.42298793792725
aF337.73257303237915
a(lp4191
g3
(g7
S'\xc4\x83)\xda\xfdky@'
p4192
tp4193
Rp4194
ag3
(g7
S'\xb1\x12q\x83lVy@'
p4195
tp4196
Rp4197
ag3
(g7
S'\x15b\x1f\x01\xdcQy@'
p4198
tp4199
Rp4200
ag3
(g7
S'\xf9\xf0\xf3\xa4I^y@'
p4201
tp4202
Rp4203
ag3
(g7
S'\x7f\x19T\xfa\xc7Ay@'
p4204
tp4205
Rp4206
aN(lp4207
g3
(g7
S'\x81N\xf1\x9c\x91\xab\xccd'
p4208
tp4209
Rp4210
ag3
(g7
S'\xb4\xd3e\xc3\x82\x9e\xccd'
p4211
tp4212
Rp4213
ag3
(g7
S'\xa6W?\x05\x84\x98\xccd'
p4214
tp4215
Rp4216
ag3
(g7
S'|\xac\xa8\x8b9\x92\xccd'
p4217
tp4218
Rp4219
ag3
(g7
S'QW\xa1$(y\xccd'
p4220
tp4221
Rp4222
atp4223
sI129
((lp4224
F21.738317012786865
aF7.100574016571045
aF103.34098601341248
aF66.5665979385376
aF131.11641597747803
a(lp4225
g3
(g7
S'\xeb^\x87\xf3\x15\xcfy@'
p4226
tp4227
Rp4228
ag3
(g7
S'*&\xee\xacb\xeby@'
p4229
tp4230
Rp4231
ag3
(g7
S'\xe3wT\xa9\x05\xb1y@'
p4232
tp4233
Rp4234
ag3
(g7
S'g*G\xd5\x08\xb1y@'
p4235
tp4236
Rp4237
ag3
(g7
S'\x80\xe77\x0f{\xaay@'
p4238
tp4239
Rp4240
aN(lp4241
g3
(g7
S'\xd5\x10\xb8D\xcdLPe'
p4242
tp4243
Rp4244
ag3
(g7
S'\x01\x80F\xa0\xffKPe'
p4245
tp4246
Rp4247
ag3
(g7
S'Q\xef^/\xbdDPe'
p4248
tp4249
Rp4250
ag3
(g7
S'\xa0\x9f\x951\x95?Pe'
p4251
tp4252
Rp4253
ag3
(g7
S'x=\xdb\x8a\x079Pe'
p4254
tp4255
Rp4256
atp4257
sI130
((lp4258
F182.25306010246277
aF30.57516098022461
aF32.457622051239014
aF111.45294690132141
aF39.37797403335571
a(lp4259
g3
(g7
S'\xb61c8\x85\xe5y@'
p4260
tp4261
Rp4262
ag3
(g7
S'\xeb59\xa3Z\x07z@'
p4263
tp4264
Rp4265
ag3
(g7
S'\x7f\x83\x12+\xac\x12z@'
p4266
tp4267
Rp4268
ag3
(g7
S'\xb5\x0b\xb9\xcb\xde\xecy@'
p4269
tp4270
Rp4271
ag3
(g7
S'o\x057\xdc\xa7\xfby@'
p4272
tp4273
Rp4274
aN(lp4275
g3
(g7
S'|\x15\xe8\xae\x96)\xa8e'
p4276
tp4277
Rp4278
ag3
(g7
S"h\x08<\x92='\xa8e"
p4279
tp4280
Rp4281
ag3
(g7
S'\ns\xc2\x89[&\xa8e'
p4282
tp4283
Rp4284
ag3
(g7
S'\xd1u\x13?+\x1d\xa8e'
p4285
tp4286
Rp4287
ag3
(g7
S'\x9a\xff2r\x1f\x1b\xa8e'
p4288
tp4289
Rp4290
atp4291
sI131
((lp4292
F40.600985050201416
aF62.77690100669861
aF125.9190239906311
aF67.48335790634155
aF128.55320692062378
a(lp4293
g3
(g7
S'\xa5\xe0\xed\xb2)Iz@'
p4294
tp4295
Rp4296
ag3
(g7
S'5\xcf\xa2\x0c\xb8?z@'
p4297
tp4298
Rp4299
ag3
(g7
S'\x90o\x83\x88h0z@'
p4300
tp4301
Rp4302
ag3
(g7
S'\r:\xb6wTFz@'
p4303
tp4304
Rp4305
ag3
(g7
S'\xcb\xbf\xff\x16\x0f7z@'
p4306
tp4307
Rp4308
aN(lp4309
g3
(g7
S'\x98\xf5+\x03\x00\xd9\x13f'
p4310
tp4311
Rp4312
ag3
(g7
S'!\xb2\xe2\xc6\xb8\xd4\x13f'
p4313
tp4314
Rp4315
ag3
(g7
S'\xf2F\xdb$\xaf\xca\x13f'
p4316
tp4317
Rp4318
ag3
(g7
S'\xe5\xcfl\x11\xf9\xc5\x13f'
p4319
tp4320
Rp4321
ag3
(g7
S'\x08\x9fm\xb9@\xc0\x13f'
p4322
tp4323
Rp4324
atp4325
sI132
((lp4326
F165.4018371105194
aF152.15767288208008
aF9.72498607635498
aF46.64425802230835
aF28.784621000289917
a(lp4327
g3
(g7
S'\xeb\xdf\xb6\xe2\xb0iz@'
p4328
tp4329
Rp4330
ag3
(g7
S'\xcat\xd9\xccjoz@'
p4331
tp4332
Rp4333
ag3
(g7
S'\xe3\xa2)\xf5\xd2\xa2z@'
p4334
tp4335
Rp4336
ag3
(g7
S'\xcf\x93\x81\xff\xdd\x83z@'
p4337
tp4338
Rp4339
ag3
(g7
S'\x8e\xc8g/\xf2\x83z@'
p4340
tp4341
Rp4342
aN(lp4343
g3
(g7
S'c\xbb`\xa0faff'
p4344
tp4345
Rp4346
ag3
(g7
S'\x95\xb8\xc0d\xadVff'
p4347
tp4348
Rp4349
ag3
(g7
S'\xb7Sn`\xacVff'
p4350
tp4351
Rp4352
ag3
(g7
S'Z]\x1f\xc2\x89Rff'
p4353
tp4354
Rp4355
ag3
(g7
S'\xd4kd\xdb\xb1Qff'
p4356
tp4357
Rp4358
atp4359
sI133
((lp4360
F27.070528030395508
aF7.270657062530518
aF7.325146913528442
aF78.74571013450623
aF141.99448418617249
a(lp4361
g3
(g7
S'[\x8eZ\x93\xe9\xcbz@'
p4362
tp4363
Rp4364
ag3
(g7
S'T|\x07B\x97\xdaz@'
p4365
tp4366
Rp4367
ag3
(g7
S'\xba\x0f\x86>\xcf\xdbz@'
p4368
tp4369
Rp4370
ag3
(g7
S'\xbf\xfd\xb4\xdce\xbcz@'
p4371
tp4372
Rp4373
ag3
(g7
S'\x1a\xf9\xbf\xcd\xd3\xb0z@'
p4374
tp4375
Rp4376
aN(lp4377
g3
(g7
S'B\x15\x7f\x1a\xfc|\xccf'
p4378
tp4379
Rp4380
ag3
(g7
S'e\x97\xa2Q\x03|\xccf'
p4381
tp4382
Rp4383
ag3
(g7
S'\x11\xccd\xf4`{\xccf'
p4384
tp4385
Rp4386
ag3
(g7
S'z\x8b7\xbe\xddj\xccf'
p4387
tp4388
Rp4389
ag3
(g7
S'\xb5\xa7tuu`\xccf'
p4390
tp4391
Rp4392
atp4393
sI134
((lp4394
F59.40848398208618
aF167.85793709754944
aF43.842528104782104
aF26.945384979248047
aF75.73718118667603
a(lp4395
g3
(g7
S'Vo\xb2\xea_\xeez@'
p4396
tp4397
Rp4398
ag3
(g7
S'\x9fDK9\xe1\xe3z@'
p4399
tp4400
Rp4401
ag3
(g7
S'8\x99F\x1fj\xfez@'
p4402
tp4403
Rp4404
ag3
(g7
S'\xd4I\xaf\xc5\x01\x12{@'
p4405
tp4406
Rp4407
ag3
(g7
S'\xb7\xfe^\xa8\x8d\xf2z@'
p4408
tp4409
Rp4410
aN(lp4411
g3
(g7
S'u\xdfz>\x180\x16g'
p4412
tp4413
Rp4414
ag3
(g7
S'\xc0\xab\x06\x00\xf9%\x16g'
p4415
tp4416
Rp4417
ag3
(g7
S'.|\xa2\x1e/$\x16g'
p4418
tp4419
Rp4420
ag3
(g7
S'\xe7\x83$\xbfo"\x16g'
p4421
tp4422
Rp4423
ag3
(g7
S'\x06P\x00\xc0\xc2\x1e\x16g'
p4424
tp4425
Rp4426
atp4427
sI135
((lp4428
F38.917365074157715
aF9.835395097732544
aF65.23211598396301
aF23.2911159992218
aF118.51096200942993
a(lp4429
g3
(g7
S'\x9a\x02?9\x17I{@'
p4430
tp4431
Rp4432
ag3
(g7
S'\xe1\\\x83wCZ{@'
p4433
tp4434
Rp4435
ag3
(g7
S'\x82RQbIC{@'
p4436
tp4437
Rp4438
ag3
(g7
S'\xc4\xd3(\xba\xbbL{@'
p4439
tp4440
Rp4441
ag3
(g7
S'\xfe\xef\x04\xf3\xd5@{@'
p4442
tp4443
Rp4444
aN(lp4445
g3
(g7
S'\xb91\x113\x97O\x8bg'
p4446
tp4447
Rp4448
ag3
(g7
S'Mi\xa3E\xb4M\x8bg'
p4449
tp4450
Rp4451
ag3
(g7
S'\x96\xae\xe9\x1b\x01F\x8bg'
p4452
tp4453
Rp4454
ag3
(g7
S'|\x07\x0bi\x0cD\x8bg'
p4455
tp4456
Rp4457
ag3
(g7
S'\xb7\xd3\x8e\x1fg:\x8bg'
p4458
tp4459
Rp4460
atp4461
sI136
((lp4462
F8.607310056686401
aF64.609365940094
aF108.54067206382751
aF11.644308090209961
aF24.443726062774658
a(lp4463
g3
(g7
S'\xea\xa3\xfe\xdf>\xc6{@'
p4464
tp4465
Rp4466
ag3
(g7
S'8N\x13\x03\xcc\x80{@'
p4467
tp4468
Rp4469
ag3
(g7
S"'C\x9a\xe6]\x81{@"
p4470
tp4471
Rp4472
ag3
(g7
S'\xfc\x89\xcb@$\xa6{@'
p4473
tp4474
Rp4475
ag3
(g7
S"'vtQd\x9e{@"
p4476
tp4477
Rp4478
aN(lp4479
g3
(g7
S'\xbd[\x14GV\xaf\xe2g'
p4480
tp4481
Rp4482
ag3
(g7
S'pd\xc3\x10\xfe\xab\xe2g'
p4483
tp4484
Rp4485
ag3
(g7
S'/\xd3\x9e\xe7O\xa4\xe2g'
p4486
tp4487
Rp4488
ag3
(g7
S'm\xd08+M\xa4\xe2g'
p4489
tp4490
Rp4491
ag3
(g7
S'\xcd\xc4\xc2\xa7\xc3\xa2\xe2g'
p4492
tp4493
Rp4494
atp4495
sI137
((lp4496
F8.661695957183838
aF415.0502870082855
aF11.474678993225098
aF39.706942081451416
aF67.56100606918335
a(lp4497
g3
(g7
S'{\xdf\xb2o\xb7\x04|@'
p4498
tp4499
Rp4500
ag3
(g7
S'\x1b\xb1f\x93C\xae{@'
p4501
tp4502
Rp4503
ag3
(g7
S'!\xa5\x11\xc8T\xde{@'
p4504
tp4505
Rp4506
ag3
(g7
S'\x16\x12?\x9a.\xd3{@'
p4507
tp4508
Rp4509
ag3
(g7
S'\xc8\x88\xa5\xbe\x8b\xd2{@'
p4510
tp4511
Rp4512
aN(lp4513
g3
(g7
S'\xb6z\xeczp\x16Nh'
p4514
tp4515
Rp4516
ag3
(g7
S'(\xb2\x1f#\xdb\xe9Mh'
p4517
tp4518
Rp4519
ag3
(g7
S'v\xc5F7\xd9\xe9Mh'
p4520
tp4521
Rp4522
ag3
(g7
S'\x80\xb2\x06i}\xe6Mh'
p4523
tp4524
Rp4525
ag3
(g7
S'\x18\x95\x9a\xf4R\xe1Mh'
p4526
tp4527
Rp4528
atp4529
sI138
((lp4530
F61.96812987327576
aF93.96697187423706
aF11.036265850067139
aF188.032879114151
aF177.598158121109
a(lp4531
g3
(g7
S'\xf8\r\xd6\x94u\xff{@'
p4532
tp4533
Rp4534
ag3
(g7
S'\x06\x1b\x1e}\xf6\xff{@'
p4535
tp4536
Rp4537
ag3
(g7
S'\xe4\xe8\xd4\xa0y)|@'
p4538
tp4539
Rp4540
ag3
(g7
S'\rv5\x81\xf2\xf7{@'
p4541
tp4542
Rp4543
ag3
(g7
S'\x91Q\x8b\xfbU\xf1{@'
p4544
tp4545
Rp4546
aN(lp4547
g3
(g7
S'\x0eY\xfa\xb5\x9a\x04\x9dh'
p4548
tp4549
Rp4550
ag3
(g7
S'\x82\xca0\xce_\xf8\x9ch'
p4551
tp4552
Rp4553
ag3
(g7
S'\xdb\x8bC}O\xf7\x9ch'
p4554
tp4555
Rp4556
ag3
(g7
S'\xe20Ai\xa9\xec\x9ch'
p4557
tp4558
Rp4559
ag3
(g7
S'\x8c\xb0I\xbd\x13\xdf\x9ch'
p4560
tp4561
Rp4562
atp4563
sI139
((lp4564
F189.02693486213684
aF56.85602402687073
aF8.984949111938477
aF30.06227397918701
aF8.79609489440918
a(lp4565
g3
(g7
S'\xf1 N\n\x89B|@'
p4566
tp4567
Rp4568
ag3
(g7
S'u\xe89Q+c|@'
p4569
tp4570
Rp4571
ag3
(g7
S'\x82\x0854\xb6\x93|@'
p4572
tp4573
Rp4574
ag3
(g7
S'wM"\x96*_|@'
p4575
tp4576
Rp4577
ag3
(g7
S'\x87\x885\x03\xa5\xa0|@'
p4578
tp4579
Rp4580
aN(lp4581
g3
(g7
S'\xbc\xf2\xa1\xcf\x13K\x13i'
p4582
tp4583
Rp4584
ag3
(g7
S'U\xfb6\xb6\xa4G\x13i'
p4585
tp4586
Rp4587
ag3
(g7
S'\x10\xeaG\x16\xa4G\x13i'
p4588
tp4589
Rp4590
ag3
(g7
S'w*\x92\xf1\xc8E\x13i'
p4591
tp4592
Rp4593
ag3
(g7
S'\xda\xec\xcc\xf4\xc7E\x13i'
p4594
tp4595
Rp4596
atp4597
sI140
((lp4598
F289.03386998176575
aF119.24992179870605
aF89.97422480583191
aF165.05264401435852
aF61.67823910713196
a(lp4599
g3
(g7
S'H\x17\xc2\r\x8bt|@'
p4600
tp4601
Rp4602
ag3
(g7
S'\x15lL\xc9\x19~|@'
p4603
tp4604
Rp4605
ag3
(g7
S'#\xcb{o:\x86|@'
p4606
tp4607
Rp4608
ag3
(g7
S'kLtfQw|@'
p4609
tp4610
Rp4611
ag3
(g7
S'\x1b7\xc3\xdd\xc1\x8d|@'
p4612
tp4613
Rp4614
aN(lp4615
g3
(g7
S'\x10\x931\xdfo\x9bYi'
p4616
tp4617
Rp4618
ag3
(g7
S'\xa0k\xaa\xd8B\x91Yi'
p4619
tp4620
Rp4621
ag3
(g7
S'\xc7Ei\xb8\xae\x8bYi'
p4622
tp4623
Rp4624
ag3
(g7
S'\xe9\xaf~\xd2@\x83Yi'
p4625
tp4626
Rp4627
ag3
(g7
S',\x0ca\xa6\x02\x81Yi'
p4628
tp4629
Rp4630
atp4631
sI141
((lp4632
F232.31195306777954
aF137.97179317474365
aF299.92397117614746
aF147.80620694160461
aF44.945963859558105
a(lp4633
g3
(g7
S'\x8d\x96\xc1\xb0\xc9\xc4|@'
p4634
tp4635
Rp4636
ag3
(g7
S'\xac\xb6\xd5\xd5k\xcd|@'
p4637
tp4638
Rp4639
ag3
(g7
S'G\x81F:\x08\xbd|@'
p4640
tp4641
Rp4642
ag3
(g7
S'\xff-\x81\xc2!\xc6|@'
p4643
tp4644
Rp4645
ag3
(g7
S'\x86\xc1\xf3&t\xde|@'
p4646
tp4647
Rp4648
aN(lp4649
g3
(g7
S'_\xdc\xfd\xdb\xa1$\xc7i'
p4650
tp4651
Rp4652
ag3
(g7
S']\xb8\x14\x99\x92\x1d\xc7i'
p4653
tp4654
Rp4655
ag3
(g7
S'H\xcb!cw\x11\xc7i'
p4656
tp4657
Rp4658
ag3
(g7
S'\x18\xa0\x1b5z\x0c\xc7i'
p4659
tp4660
Rp4661
ag3
(g7
S'"a\xe2\xc1\xbb\x0b\xc7i'
p4662
tp4663
Rp4664
atp4665
sI142
((lp4666
F20.145615100860596
aF25.230299949645996
aF125.57943296432495
aF123.31878280639648
aF108.50278806686401
a(lp4667
g3
(g7
S'\x04\x98\x98\xdcf:}@'
p4668
tp4669
Rp4670
ag3
(g7
S'\xbeP\x95\x07iA}@'
p4671
tp4672
Rp4673
ag3
(g7
S'\xe2\xe9\x83\x1e&\x1f}@'
p4674
tp4675
Rp4676
ag3
(g7
S'S\x19T\xd5\xc3\x1b}@'
p4677
tp4678
Rp4679
ag3
(g7
S'Jp\xc9I.%}@'
p4680
tp4681
Rp4682
aN(lp4683
g3
(g7
S'Jj\x9a\xc9\xd9\xb1<j'
p4684
tp4685
Rp4686
ag3
(g7
S'\xcc\xc4f\x83\xcc\xaf<j'
p4687
tp4688
Rp4689
ag3
(g7
S'\x11\xc7\xa2\xfb\xc8\xa4<j'
p4690
tp4691
Rp4692
ag3
(g7
S'\x07\x7f\xbcj0\x9c<j'
p4693
tp4694
Rp4695
ag3
(g7
S'\xec\xa7\x06\x94\t\x97<j'
p4696
tp4697
Rp4698
atp4699
sI143
((lp4700
F19.634593963623047
aF111.25853300094604
aF89.57027888298035
aF20.18903398513794
aF9.554168939590454
a(lp4701
g3
(g7
S'\xef\xa8j\xfd\xfeo}@'
p4702
tp4703
Rp4704
ag3
(g7
S'\x0f\xe1s!6_}@'
p4705
tp4706
Rp4707
ag3
(g7
S'\x17\xd1\xe3\x03\xbb\\}@'
p4708
tp4709
Rp4710
ag3
(g7
S'\x98\x86rt \x88}@'
p4711
tp4712
Rp4713
ag3
(g7
S'\xe8\xec#\x1c\xdf\x8e}@'
p4714
tp4715
Rp4716
aN(lp4717
g3
(g7
S'5\x179\x87\xc0\xd9\x96j'
p4718
tp4719
Rp4720
ag3
(g7
S'a\xaa\xfc\xc3\x99\xd1\x96j'
p4721
tp4722
Rp4723
ag3
(g7
S'\x1e\xdd\x1eyA\xcc\x96j'
p4724
tp4725
Rp4726
ag3
(g7
S'\xfe\x8e\xc4]\xda\xca\x96j'
p4727
tp4728
Rp4729
ag3
(g7
S'I\xb3\xbd\xdeF\xca\x96j'
p4730
tp4731
Rp4732
atp4733
sI144
((lp4734
F32.17420697212219
aF21.450551986694336
aF15.158910036087036
aF178.34706902503967
aF55.869905948638916
a(lp4735
g3
(g7
S']\x89\xa4|\x92\xc1}@'
p4736
tp4737
Rp4738
ag3
(g7
S'\xe1\x1f\xcbV\xba\xca}@'
p4739
tp4740
Rp4741
ag3
(g7
S'\xf3k\xbdS\xc3\xd7}@'
p4742
tp4743
Rp4744
ag3
(g7
S'\xa7\x8d/\x0b\x88\xa9}@'
p4745
tp4746
Rp4747
ag3
(g7
S'Z\x95\x9dI/\xc4}@'
p4748
tp4749
Rp4750
aN(lp4751
g3
(g7
S'\x08\xd9t\xfdR\xe6\x10k'
p4752
tp4753
Rp4754
ag3
(g7
S'\x91-v\x06\xdb\xe4\x10k'
p4755
tp4756
Rp4757
ag3
(g7
S'V~t\x19\xbe\xe3\x10k'
p4758
tp4759
Rp4760
ag3
(g7
S'_\xea\x84\xc9\xd2\xdc\x10k'
p4761
tp4762
Rp4763
ag3
(g7
S'E\x9bf\xb4\xda\xda\x10k'
p4764
tp4765
Rp4766
atp4767
sI145
((lp4768
F48.24622082710266
aF27.35471487045288
aF25.598219871520996
aF10.121397018432617
aF53.691004037857056
a(lp4769
g3
(g7
S'\xb9V^d9\xe5}@'
p4770
tp4771
Rp4772
ag3
(g7
S'\xf4b\xcf/\xc2\xf5}@'
p4773
tp4774
Rp4775
ag3
(g7
S'\x03\xb7Do\xd9\xec}@'
p4776
tp4777
Rp4778
ag3
(g7
S'\xf4\xb7\xd5\xd7N\x04~@'
p4779
tp4780
Rp4781
ag3
(g7
S'\n~\xa3\x12\x8b\xe2}@'
p4782
tp4783
Rp4784
aN(lp4785
g3
(g7
S'\x1a\r\xcb&\x95aSk'
p4786
tp4787
Rp4788
ag3
(g7
S'\x06g\x93K\xc2_Sk'
p4789
tp4790
Rp4791
ag3
(g7
S'\x02*`P\xcf^Sk'
p4792
tp4793
Rp4794
ag3
(g7
S'\x06:\x9f\x1b\xb1^Sk'
p4795
tp4796
Rp4797
ag3
(g7
S'\x0c2P\xdc\x10\\Sk'
p4798
tp4799
Rp4800
atp4801
sI146
((lp4802
F113.76320290565491
aF10.0223970413208
aF169.7729938030243
aF30.270474910736084
aF151.6328330039978
a(lp4803
g3
(g7
S'3uK\x96C)~@'
p4804
tp4805
Rp4806
ag3
(g7
S'\xfe\xa3\xf7p\x0fe~@'
p4807
tp4808
Rp4809
ag3
(g7
S'\x08n\xe8"\xe2(~@'
p4810
tp4811
Rp4812
ag3
(g7
S'2h_O/J~@'
p4813
tp4814
Rp4815
ag3
(g7
S'\xfcF\x08n`/~@'
p4816
tp4817
Rp4818
aN(lp4819
g3
(g7
S'\n\x80\x02\xceG\xb4\xc2k'
p4820
tp4821
Rp4822
ag3
(g7
S'\xe4V\xf4\xec\xc8\xb3\xc2k'
p4823
tp4824
Rp4825
ag3
(g7
S'\xcc;\xca\x10\xb1\xad\xc2k'
p4826
tp4827
Rp4828
ag3
(g7
S'4\x12=\x99\xf2\xac\xc2k'
p4829
tp4830
Rp4831
ag3
(g7
S'\x8e\x80\x8f\xd0\xdd\xa8\xc2k'
p4832
tp4833
Rp4834
atp4835
sI147
((lp4836
F211.5659248828888
aF82.20213603973389
aF377.8750970363617
aF132.37475109100342
aF254.3343529701233
a(lp4837
g3
(g7
S'\xbaq\xe6\xb8Dm~@'
p4838
tp4839
Rp4840
ag3
(g7
S'\xaf\x1a\xf7$~\x80~@'
p4841
tp4842
Rp4843
ag3
(g7
S'k4\x8a\x02pb~@'
p4844
tp4845
Rp4846
ag3
(g7
S'\x1b\x92\x15\xb1\xc3q~@'
p4847
tp4848
Rp4849
ag3
(g7
S'\x1b\xc4\xd9\x80\xe1i~@'
p4850
tp4851
Rp4852
aN(lp4853
g3
(g7
S'ff\xee\x03kp(l'
p4854
tp4855
Rp4856
ag3
(g7
S'\x9e\xc09\xfc#l(l'
p4857
tp4858
Rp4859
ag3
(g7
S'`\xa7\x18\xe9O_(l'
p4860
tp4861
Rp4862
ag3
(g7
S'\xe8\xae\xed\x840Z(l'
p4863
tp4864
Rp4865
ag3
(g7
S'\x83\xb4\xf3\x8b\xb0S(l'
p4866
tp4867
Rp4868
atp4869
sI148
((lp4870
F33.879230976104736
aF221.74039220809937
aF63.002532958984375
aF30.72153902053833
aF11.692338943481445
a(lp4871
g3
(g7
S'\x82\xaf\xcdN*\xe1~@'
p4872
tp4873
Rp4874
ag3
(g7
S'\x1f\x8ep]\xff\xbd~@'
p4875
tp4876
Rp4877
ag3
(g7
S'\xabl\xc3\x82v\xcf~@'
p4878
tp4879
Rp4880
ag3
(g7
S'\xcd\xb8\xd3_m\xca~@'
p4881
tp4882
Rp4883
ag3
(g7
S'\xd1\xc3\xd9\x17\xdc\xdf~@'
p4884
tp4885
Rp4886
aN(lp4887
g3
(g7
S'\x0f\xb6])\xb9\xe9\x97l'
p4888
tp4889
Rp4890
ag3
(g7
S'\x06\x1eb\xc0\xb1\xde\x97l'
p4891
tp4892
Rp4893
ag3
(g7
S'\xb54\xdfdJ\xdb\x97l'
p4894
tp4895
Rp4896
ag3
(g7
S'\x9b+O\xd3\xc0\xd9\x97l'
p4897
tp4898
Rp4899
ag3
(g7
S'\xbc\xf7R\x98\x04\xd9\x97l'
p4900
tp4901
Rp4902
atp4903
sI149
((lp4904
F23.990506887435913
aF173.9961748123169
aF199.32591605186462
aF390.7403419017792
aF25.191625118255615
a(lp4905
g3
(g7
S'#\xdb\xbe)\xb3\x14\x7f@'
p4906
tp4907
Rp4908
ag3
(g7
S'f\xe7{\x01\xcd\x08\x7f@'
p4909
tp4910
Rp4911
ag3
(g7
S'\xd4\xbc\xff{)\x03\x7f@'
p4912
tp4913
Rp4914
ag3
(g7
S'\x87\x1b\x9e\x1a\x15\xf5~@'
p4915
tp4916
Rp4917
ag3
(g7
S't\xd1W\x0b\xe0\x16\x7f@'
p4918
tp4919
Rp4920
aN(lp4921
g3
(g7
S'\x96\xd1^\x9c8,\xfcl'
p4922
tp4923
Rp4924
ag3
(g7
S'?\xbfx\\\xbe\x1f\xfcl'
p4925
tp4926
Rp4927
ag3
(g7
S'\xc4\x0e+\xa5\\\x17\xfcl'
p4928
tp4929
Rp4930
ag3
(g7
S'~\x99\xff\xfa\xaa\x06\xfcl'
p4931
tp4932
Rp4933
ag3
(g7
S'\xe2\xf5\xbf@\xad\x03\xfcl'
p4934
tp4935
Rp4936
atp4937
sI150
((lp4938
F345.7872791290283
aF11.85654091835022
aF11.753413200378418
aF160.25068712234497
aF182.85547304153442
a(lp4939
g3
(g7
S'U\x0e\xb5\x1cn\x1d\x7f@'
p4940
tp4941
Rp4942
ag3
(g7
S'y?C\x8fVa\x7f@'
p4943
tp4944
Rp4945
ag3
(g7
S'A(|\txT\x7f@'
p4946
tp4947
Rp4948
ag3
(g7
S'\x15\xe6\xb7\x06\xc9#\x7f@'
p4949
tp4950
Rp4951
ag3
(g7
S'\xd4f_\xf5\xa7+\x7f@'
p4952
tp4953
Rp4954
aN(lp4955
g3
(g7
S'\xbf\x89\x0c5\x0f\xd80m'
p4956
tp4957
Rp4958
ag3
(g7
S'Y~\x98\x02\xa1\xd70m'
p4959
tp4960
Rp4961
ag3
(g7
S'\xd3&\xdf\xbb#\xd70m'
p4962
tp4963
Rp4964
ag3
(g7
S'\xcb|\x9f6B\xd30m'
p4965
tp4966
Rp4967
ag3
(g7
S'6\xde!z6\xce0m'
p4968
tp4969
Rp4970
atp4971
sI151
((lp4972
F95.0176751613617
aF753.9848670959473
aF98.30635499954224
aF25.729212045669556
aF33.475980043411255
a(lp4973
g3
(g7
S'd\xab%H\xe3\x7f\x7f@'
p4974
tp4975
Rp4976
ag3
(g7
S".\xe42\xfc'c\x7f@"
p4977
tp4978
Rp4979
ag3
(g7
S'c$ny\xa8}\x7f@'
p4980
tp4981
Rp4982
ag3
(g7
S'*)d\xe6\xed\x7f\x7f@'
p4983
tp4984
Rp4985
ag3
(g7
S'\x9fy\xe0\xd5o\x97\x7f@'
p4986
tp4987
Rp4988
aN(lp4989
g3
(g7
S'|s)[\x8f\xee\xa2m'
p4990
tp4991
Rp4992
ag3
(g7
S'\xbd\xbcR\x03\x9d\xd9\xa2m'
p4993
tp4994
Rp4995
ag3
(g7
S'Z\x81\xb5\x91N\xd7\xa2m'
p4996
tp4997
Rp4998
ag3
(g7
S'\xe7H\xe8\xc9\x8d\xd6\xa2m'
p4999
tp5000
Rp5001
ag3
(g7
S'+C\xb6W\x8c\xd6\xa2m'
p5002
tp5003
Rp5004
atp5005
sI152
((lp5006
F60.95384907722473
aF245.99406909942627
aF92.38898587226868
aF191.16888189315796
aF160.47463393211365
a(lp5007
g3
(g7
S'\xcf}\xde3+\xdf\x7f@'
p5008
tp5009
Rp5010
ag3
(g7
S'\xed\xe3\x82I\xed\xb8\x7f@'
p5011
tp5012
Rp5013
ag3
(g7
S'6"\x93\xaf?\xce\x7f@'
p5014
tp5015
Rp5016
ag3
(g7
S'\x01\xbe\x01\xfd4\xc2\x7f@'
p5017
tp5018
Rp5019
ag3
(g7
S'\xf8\xc1\x80\xb8G\xc2\x7f@'
p5020
tp5021
Rp5022
aN(lp5023
g3
(g7
S'!b\xc8}>\xad\x11n'
p5024
tp5025
Rp5026
ag3
(g7
S'A\x92\t\xb44\xa5\x11n'
p5027
tp5028
Rp5029
ag3
(g7
S'_;\xecZ\xb9\xa3\x11n'
p5030
tp5031
Rp5032
ag3
(g7
S'\xfa+/\xff\x9e\xa0\x11n'
p5033
tp5034
Rp5035
ag3
(g7
S'n\x8bJC\x9a\x9d\x11n'
p5036
tp5037
Rp5038
atp5039
sI153
((lp5040
F244.069974899292
aF144.78695607185364
aF612.8038079738617
aF115.70780992507935
aF30.512922048568726
a(lp5041
g3
(g7
S'\xfd\xb5\xc3X\xc3\x00\x80@'
p5042
tp5043
Rp5044
ag3
(g7
S'e\xfe~L\xcc\x04\x80@'
p5045
tp5046
Rp5047
ag3
(g7
S'\x0b=\r\xec\x89\xf4\x7f@'
p5048
tp5049
Rp5050
ag3
(g7
S'\xa4\xb7\xb5I\x10\t\x80@'
p5051
tp5052
Rp5053
ag3
(g7
S'\x91qW\xfb\xe3\x16\x80@'
p5054
tp5055
Rp5056
aN(lp5057
g3
(g7
S'\n\xd8\x84\x03\x80\xf6qn'
p5058
tp5059
Rp5060
ag3
(g7
S'-\xb4g\xc2\xab\xf0qn'
p5061
tp5062
Rp5063
ag3
(g7
S'6\x89QP\xeb\xe5qn'
p5064
tp5065
Rp5066
ag3
(g7
S'\xed4/%\xc0\xe3qn'
p5067
tp5068
Rp5069
ag3
(g7
S'\xc4\x17\xdd\xf1\xbd\xe3qn'
p5070
tp5071
Rp5072
atp5073
sI154
((lp5074
F188.32712197303772
aF382.3551471233368
aF13.192788124084473
aF60.178531885147095
aF107.8325629234314
a(lp5075
g3
(g7
S'\xb0\xf8\x90Y*/\x80@'
p5076
tp5077
Rp5078
ag3
(g7
S'\x9c\xf4>\x1f\xed*\x80@'
p5079
tp5080
Rp5081
ag3
(g7
S'\x84\xc0F\xbb\x95I\x80@'
p5082
tp5083
Rp5084
ag3
(g7
S'\xba\xe9\xa1\x02\x9c8\x80@'
p5085
tp5086
Rp5087
ag3
(g7
S'/1\xdbZ\x932\x80@'
p5088
tp5089
Rp5090
aN(lp5091
g3
(g7
S'!\x1a\x7f\xbbH4\xf5n'
p5092
tp5093
Rp5094
ag3
(g7
S'\x87Ra\xca\xce(\xf5n'
p5095
tp5096
Rp5097
ag3
(g7
S'x$\xd0\x0b\xce(\xf5n'
p5098
tp5099
Rp5100
ag3
(g7
S'Q\xd4G\xfe\x1e(\xf5n'
p5101
tp5102
Rp5103
ag3
(g7
S'I\xe9\x05\xab\x0f&\xf5n'
p5104
tp5105
Rp5106
atp5107
sI155
((lp5108
F13.679275035858154
aF27.900907039642334
aF62.49255299568176
aF66.35156488418579
aF20.71804904937744
a(lp5109
g3
(g7
S'\x02i\xf7\\En\x80@'
p5110
tp5111
Rp5112
ag3
(g7
S'\xc2\xc0;\xfeRh\x80@'
p5113
tp5114
Rp5115
ag3
(g7
S'\x05\xf6nJ@d\x80@'
p5116
tp5117
Rp5118
ag3
(g7
S'p`6\xbc\x01_\x80@'
p5119
tp5120
Rp5121
ag3
(g7
S'(u\x97\x9b9m\x80@'
p5122
tp5123
Rp5124
aN(lp5125
g3
(g7
S't\xd0\x83U\xc0\xc1ho'
p5126
tp5127
Rp5128
ag3
(g7
S'\xc3\x8a\x13\x083\xc0ho'
p5129
tp5130
Rp5131
ag3
(g7
S'\xdd\xc5c\xf6d\xbdho'
p5132
tp5133
Rp5134
ag3
(g7
S'\x86lS\xa7\xd8\xb8ho'
p5135
tp5136
Rp5137
ag3
(g7
S'\x8c\xc0;\xd75\xb8ho'
p5138
tp5139
Rp5140
atp5141
sI156
((lp5142
F168.32286596298218
aF69.79148888587952
aF154.39641499519348
aF643.7670180797577
aF248.58365607261658
a(lp5143
g3
(g7
S'\xae\x92@"\x86t\x80@'
p5144
tp5145
Rp5146
ag3
(g7
S'\t\xeaz\xcc*z\x80@'
p5147
tp5148
Rp5149
ag3
(g7
S'}R\x91\x87\xdbr\x80@'
p5150
tp5151
Rp5152
ag3
(g7
S'\xdbR0\x12Bj\x80@'
p5153
tp5154
Rp5155
ag3
(g7
S'\xa5`/i\xe8r\x80@'
p5156
tp5157
Rp5158
aN(lp5159
g3
(g7
S'\xf98(\xe9\xa8\x18\xb3o'
p5160
tp5161
Rp5162
ag3
(g7
S'\xd7\xa2\x0b\x94#\x16\xb3o'
p5163
tp5164
Rp5165
ag3
(g7
S'\x01\xba\xe6~\xfd\x10\xb3o'
p5166
tp5167
Rp5168
ag3
(g7
S'\x83\xf6\xc0\xc8\x9c\x03\xb3o'
p5169
tp5170
Rp5171
ag3
(g7
S'D\x8fp0\xe2\x01\xb3o'
p5172
tp5173
Rp5174
atp5175
sI157
((lp5176
F98.81010413169861
aF552.828272819519
aF328.68894600868225
aF39.6173791885376
aF178.54228496551514
a(lp5177
g3
(g7
S'\xde\xe0)\x0b!\x98\x80@'
p5178
tp5179
Rp5180
ag3
(g7
S'\xa3d7\x85\xeb\x89\x80@'
p5181
tp5182
Rp5183
ag3
(g7
S'\xfbc,f \x8d\x80@'
p5184
tp5185
Rp5186
ag3
(g7
S'\xb5\xab\x96\x13]\xa0\x80@'
p5187
tp5188
Rp5189
ag3
(g7
S'\xe5\xc4\xf7\x02o\x95\x80@'
p5190
tp5191
Rp5192
aN(lp5193
g3
(g7
S'\xc7\xc7\xd9,"\x08\x0ep'
p5194
tp5195
Rp5196
ag3
(g7
S'\xbc\x1eW\x1b^\xf6\rp'
p5197
tp5198
Rp5199
ag3
(g7
S'\xc6\x93=\xc8U\xf0\rp'
p5200
tp5201
Rp5202
ag3
(g7
S'\xb5\xbb~\x16J\xef\rp'
p5203
tp5204
Rp5205
ag3
(g7
S'\x82A\xaa\x1b\xb9\xe9\rp'
p5206
tp5207
Rp5208
atp5209
sI158
((lp5210
F377.9842209815979
aF21.88427710533142
aF37.562483072280884
aF41.18015789985657
aF61.32802104949951
a(lp5211
g3
(g7
S't\x89\xe8&\x89\xb2\x80@'
p5212
tp5213
Rp5214
ag3
(g7
S'\xdeO\xdc\xfc\xa9\xc5\x80@'
p5215
tp5216
Rp5217
ag3
(g7
S'\xd9\xfeLG\x98\xc7\x80@'
p5218
tp5219
Rp5220
ag3
(g7
S'3\x17W~\xe1\xc5\x80@'
p5221
tp5222
Rp5223
ag3
(g7
S'\xc3(1\xafS\xc8\x80@'
p5224
tp5225
Rp5226
aN(lp5227
g3
(g7
S'v\xc8\x0c\xe9\x9eT~p'
p5228
tp5229
Rp5230
ag3
(g7
S'B?\xee\x0f=T~p'
p5231
tp5232
Rp5233
ag3
(g7
S'\xc3Xn:\xd3S~p'
p5234
tp5235
Rp5236
ag3
(g7
S'\xaa\x19o\xfcuR~p'
p5237
tp5238
Rp5239
ag3
(g7
S'\x18\xf8`tNP~p'
p5240
tp5241
Rp5242
atp5243
sI159
((lp5244
F17.360229015350342
aF360.78995084762573
aF145.150456905365
aF204.0092408657074
aF630.9568779468536
a(lp5245
g3
(g7
S'\xd9C\xf471\xf3\x80@'
p5246
tp5247
Rp5248
ag3
(g7
S'\xa9\x08\x83\x90\xe6\xd6\x80@'
p5249
tp5250
Rp5251
ag3
(g7
S'vB$\x84\x14\xde\x80@'
p5252
tp5253
Rp5254
ag3
(g7
S'g(\x1c\xcd\xc5\xd8\x80@'
p5255
tp5256
Rp5257
ag3
(g7
S'\xc2o\x8c\x16i\xd3\x80@'
p5258
tp5259
Rp5260
aN(lp5261
g3
(g7
S'\x12\x87\x11\xc7\xb6B\xdep'
p5262
tp5263
Rp5264
ag3
(g7
S'\xb5\xd2N\x82\xe5.\xdep'
p5265
tp5266
Rp5267
ag3
(g7
S'|\xfd\xfec\x90)\xdep'
p5268
tp5269
Rp5270
ag3
(g7
S'\x92\xdaj\xc3\xf5"\xdep'
p5271
tp5272
Rp5273
ag3
(g7
S'\x0e\x0b\x8b\xea\x0f\x12\xdep'
p5274
tp5275
Rp5276
atp5277
sI160
((lp5278
F55.38298010826111
aF15.253360033035278
aF180.3074769973755
aF344.4363238811493
aF54.212372064590454
a(lp5279
g3
(g7
S'\xb3\x923\x88\t\x05\x81@'
p5280
tp5281
Rp5282
ag3
(g7
S'\x03\xbc\x93^\x05\t\x81@'
p5283
tp5284
Rp5285
ag3
(g7
S'H\xdc\xe3|{\xfd\x80@'
p5286
tp5287
Rp5288
ag3
(g7
S'\xb1\xc8\x92L\x99\xf7\x80@'
p5289
tp5290
Rp5291
ag3
(g7
S'|L\xee;\xb4\x06\x81@'
p5292
tp5293
Rp5294
aN(lp5295
g3
(g7
S'\xe6\xe6\xd4%\x8a\x8c=q'
p5296
tp5297
Rp5298
ag3
(g7
S'\xf7/\x8e\x83\xeb\x8b=q'
p5299
tp5300
Rp5301
ag3
(g7
S'&\xfcar\xbe\x82=q'
p5302
tp5303
Rp5304
ag3
(g7
S'\xc96\xc5\xf47r=q'
p5305
tp5306
Rp5307
ag3
(g7
S'\xd6\x9d\x95^\xcap=q'
p5308
tp5309
Rp5310
atp5311
sI161
((lp5312
F86.98731017112732
aF99.98750901222229
aF196.08589887619019
aF395.6240839958191
aF301.04988288879395
a(lp5313
g3
(g7
S'\xaa\xc0_\xb4\xce)\x81@'
p5314
tp5315
Rp5316
ag3
(g7
S'\x8fKi\x92\x83(\x81@'
p5317
tp5318
Rp5319
ag3
(g7
S"\xe0\xe7\xd4\xc6C'\x81@"
p5320
tp5321
Rp5322
ag3
(g7
S'i\xf6a\xf7\x1a\x1e\x81@'
p5323
tp5324
Rp5325
ag3
(g7
S'\x008^\xd0\x13"\x81@'
p5326
tp5327
Rp5328
aN(lp5329
g3
(g7
S'\x9f,}H\xb9\xa1\xb0q'
p5330
tp5331
Rp5332
ag3
(g7
S'\xe2\x1d\x84\xe0\xdb\x9f\xb0q'
p5333
tp5334
Rp5335
ag3
(g7
S'\x0b\xaf\xd3}\xe4\x9c\xb0q'
p5336
tp5337
Rp5338
ag3
(g7
S'\xad\x89\xbe6t\x95\xb0q'
p5339
tp5340
Rp5341
ag3
(g7
S'y`\xa7#9\x92\xb0q'
p5342
tp5343
Rp5344
atp5345
sI162
((lp5346
F95.5503900051117
aF132.25618600845337
aF192.59642505645752
aF15.782747983932495
aF117.04363489151001
a(lp5347
g3
(g7
S'`\x81\x9b\xe6l@\x81@'
p5348
tp5349
Rp5350
ag3
(g7
S'\x8b\r\x0e\x8cb<\x81@'
p5351
tp5352
Rp5353
ag3
(g7
S'\x81\xd7\r*\xed@\x81@'
p5354
tp5355
Rp5356
ag3
(g7
S'[\xa5\xe5\xd3\xc1M\x81@'
p5357
tp5358
Rp5359
ag3
(g7
S'\xf4\x8d7\x90\x83@\x81@'
p5360
tp5361
Rp5362
aN(lp5363
g3
(g7
S'\x88\xa1\x82\x08\xa3\xe9\xfaq'
p5364
tp5365
Rp5366
ag3
(g7
S'gYu5_\xe2\xfaq'
p5367
tp5368
Rp5369
ag3
(g7
S'K\x14 \x83\xf5\xdc\xfaq'
p5370
tp5371
Rp5372
ag3
(g7
S'\xc4\xb5.\x0e\xf1\xdb\xfaq'
p5373
tp5374
Rp5375
ag3
(g7
S'J\xc4\xd9Fs\xd9\xfaq'
p5376
tp5377
Rp5378
atp5379
sI163
((lp5380
F86.80751204490662
aF15.127968072891235
aF174.08751010894775
aF156.8963840007782
aF35.429811000823975
a(lp5381
g3
(g7
S'\xd1+\xc7m\x9dk\x81@'
p5382
tp5383
Rp5384
ag3
(g7
S'\xf7\x07\xf9U\x85\x8c\x81@'
p5385
tp5386
Rp5387
ag3
(g7
S'\xe2\xe24\xe0\x01g\x81@'
p5388
tp5389
Rp5390
ag3
(g7
S']q\x07&qh\x81@'
p5391
tp5392
Rp5393
ag3
(g7
S"!,\x11$'w\x81@"
p5394
tp5395
Rp5396
aN(lp5397
g3
(g7
S'\xddH\xc6$\x86\xcbnr'
p5398
tp5399
Rp5400
ag3
(g7
S'\xee\xde$\xa2\x16\xcbnr'
p5401
tp5402
Rp5403
ag3
(g7
S'\xf2\x9b\x9b>\xa8\xc3nr'
p5404
tp5405
Rp5406
ag3
(g7
S'\x90\x8b\x1d+\x13\xbdnr'
p5407
tp5408
Rp5409
ag3
(g7
S'\xc7M\x96\x9e\x9b\xbanr'
p5410
tp5411
Rp5412
atp5413
sI164
((lp5414
F442.41131687164307
aF579.6868731975555
aF72.39438390731812
aF94.38055992126465
aF78.98448300361633
a(lp5415
g3
(g7
S'\xc5\xaa\n\xa7\xc2\x80\x81@'
p5416
tp5417
Rp5418
ag3
(g7
S'|\xf6h\x85\x80}\x81@'
p5419
tp5420
Rp5421
ag3
(g7
S'\x10\xb2\x9en\xe4\x92\x81@'
p5422
tp5423
Rp5424
ag3
(g7
S'!\x9cD\x1e\xbd\x8e\x81@'
p5425
tp5426
Rp5427
ag3
(g7
S'W\x96m<P\x92\x81@'
p5428
tp5429
Rp5430
aN(lp5431
g3
(g7
S'\xa1\xd3cN\xb9\x0c\xcer'
p5432
tp5433
Rp5434
ag3
(g7
S'\xe8\xb2\x0c\xb9i\xfb\xcdr'
p5435
tp5436
Rp5437
ag3
(g7
S'\xee\x14S\xec\xb3\xfa\xcdr'
p5438
tp5439
Rp5440
ag3
(g7
S'\x9a12\xd4\xde\xf8\xcdr'
p5441
tp5442
Rp5443
ag3
(g7
S'T\x7f\x94\xba\xd4\xf7\xcdr'
p5444
tp5445
Rp5446
atp5447
sI165
((lp5448
F38.387030839920044
aF30.087047815322876
aF68.17205905914307
aF183.19908905029297
aF37.33712100982666
a(lp5449
g3
(g7
S')S\xe0\x8c\x7f\xb9\x81@'
p5450
tp5451
Rp5452
ag3
(g7
S'\x97\xec\xa06\x8f\xbf\x81@'
p5453
tp5454
Rp5455
ag3
(g7
S'\x96\x12f\x00\xeb\xbb\x81@'
p5456
tp5457
Rp5458
ag3
(g7
S'\x9e\x1c\xa7\x13\xdd\xac\x81@'
p5459
tp5460
Rp5461
ag3
(g7
S'\x0b\x96\xdcb\xc4\xbc\x81@'
p5462
tp5463
Rp5464
aN(lp5465
g3
(g7
S'/\xa5\xb4\x1f%\xb0As'
p5466
tp5467
Rp5468
ag3
(g7
S'\tE\x8f\x96{\xafAs'
p5469
tp5470
Rp5471
ag3
(g7
S'\xae?\r\xecd\xadAs'
p5472
tp5473
Rp5474
ag3
(g7
S'n\x1c\xc3$(\xaaAs'
p5475
tp5476
Rp5477
ag3
(g7
S'\x92C\xe0\xa4&\xa9As'
p5478
tp5479
Rp5480
atp5481
sI166
((lp5482
F155.26258516311646
aF140.9493339061737
aF193.49458503723145
aF90.00146198272705
aF375.0293560028076
a(lp5483
g3
(g7
S'\\\x95\xd0g\xdb\xc8\x81@'
p5484
tp5485
Rp5486
ag3
(g7
S'\xc50\xdbO\t\xcf\x81@'
p5487
tp5488
Rp5489
ag3
(g7
S'\xb8%\xe1\x97\x8b\xcb\x81@'
p5490
tp5491
Rp5492
ag3
(g7
S'\xb3Mt\xb2H\xcd\x81@'
p5493
tp5494
Rp5495
ag3
(g7
S'\x1fW\xc1J&\xc6\x81@'
p5496
tp5497
Rp5498
aN(lp5499
g3
(g7
S'\x16\xf1\x07~\xa5\xba\x8fs'
p5500
tp5501
Rp5502
ag3
(g7
S'\xf7(\x8c\xf0\x97\xb5\x8fs'
p5503
tp5504
Rp5505
ag3
(g7
S'\x98\x1b\x8b\xc4\xa4\xaf\x8fs'
p5506
tp5507
Rp5508
ag3
(g7
S'\xcd+\x88\x8d\xa3\xab\x8fs'
p5509
tp5510
Rp5511
ag3
(g7
S'h\x8a\xbe\x95\xba\xa1\x8fs'
p5512
tp5513
Rp5514
atp5515
sI167
((lp5516
F95.33672285079956
aF65.80274415016174
aF49.78437399864197
aF149.14713311195374
aF78.97992610931396
a(lp5517
g3
(g7
S'<\x80\x1391\xfc\x81@'
p5518
tp5519
Rp5520
ag3
(g7
S'R\x05\x17HQ\xfb\x81@'
p5521
tp5522
Rp5523
ag3
(g7
S"'\xd2\x18\x9c\x82\x01\x82@"
p5524
tp5525
Rp5526
ag3
(g7
S"\xec\xd7\xbb')\xf7\x81@"
p5527
tp5528
Rp5529
ag3
(g7
S'\xa1\x114\x81\xfc\xfd\x81@'
p5530
tp5531
Rp5532
aN(lp5533
g3
(g7
S'YRj\xf7\x87\xff\x0bt'
p5534
tp5535
Rp5536
ag3
(g7
S'\x18\xe6\xb9h`\xfd\x0bt'
p5537
tp5538
Rp5539
ag3
(g7
S'\x90\x7f\xa8\xc00\xfc\x0bt'
p5540
tp5541
Rp5542
ag3
(g7
S'\x0f\x04[E\xab\xf7\x0bt'
p5543
tp5544
Rp5545
ag3
(g7
S'\x163J\xdb\xe1\xf4\x0bt'
p5546
tp5547
Rp5548
atp5549
sI168
((lp5550
F131.69339394569397
aF137.92872190475464
aF76.25561285018921
aF228.38069605827332
aF65.66160583496094
a(lp5551
g3
(g7
S'~"\xf9\x1bv\x1c\x82@'
p5552
tp5553
Rp5554
ag3
(g7
S"\x12\xbf\xa9G'\x1b\x82@"
p5555
tp5556
Rp5557
ag3
(g7
S'p\xc4\x92/\xa2\x1d\x82@'
p5558
tp5559
Rp5560
ag3
(g7
S'\x9c\x8eL\xe6@\x13\x82@'
p5561
tp5562
Rp5563
ag3
(g7
S'\xa7[\xc8\\@\x1e\x82@'
p5564
tp5565
Rp5566
aN(lp5567
g3
(g7
S'_3)\xd2?Let'
p5568
tp5569
Rp5570
ag3
(g7
S'?\x1a\x03NiHet'
p5571
tp5572
Rp5573
ag3
(g7
S'\xf3\xdb\xf7\x07\x19Get'
p5574
tp5575
Rp5576
ag3
(g7
S'\xba\xb3\xac7\xedBet'
p5577
tp5578
Rp5579
ag3
(g7
S'xU\xbe\x1c\xe1Aet'
p5580
tp5581
Rp5582
atp5583
sI169
((lp5584
F260.5694420337677
aF484.73895502090454
aF189.56174111366272
aF24.353888034820557
aF49.042099952697754
a(lp5585
g3
(g7
S'\x17\xf9\xf4\xd1\xf39\x82@'
p5586
tp5587
Rp5588
ag3
(g7
S'\x99\r\xb2\x05\x1a3\x82@'
p5589
tp5590
Rp5591
ag3
(g7
S'\xcf(\xfe\x02KB\x82@'
p5592
tp5593
Rp5594
ag3
(g7
S'c\x87\xa4\x17\x8cG\x82@'
p5595
tp5596
Rp5597
ag3
(g7
S'\x81n\xaf\xdd\xedK\x82@'
p5598
tp5599
Rp5600
aN(lp5601
g3
(g7
S'\x13\xa4C.\xac\x87\xd3t'
p5602
tp5603
Rp5604
ag3
(g7
S'\xf7\x16t\x14\xde\x7f\xd3t'
p5605
tp5606
Rp5607
ag3
(g7
S'\xbe-[^\x1f~\xd3t'
p5608
tp5609
Rp5610
ag3
(g7
S'(r\x8f\xb5\x9d}\xd3t'
p5611
tp5612
Rp5613
ag3
(g7
S'\xa3\x82Ah\xa4|\xd3t'
p5614
tp5615
Rp5616
atp5617
sI170
((lp5618
F282.5222451686859
aF466.12789702415466
aF35.58550786972046
aF17.718465089797974
aF105.41907906532288
a(lp5619
g3
(g7
S'\x1e2\xa9\x92\x10]\x82@'
p5620
tp5621
Rp5622
ag3
(g7
S'\x1e\n\xc1\xa1\xf7V\x82@'
p5623
tp5624
Rp5625
ag3
(g7
S'\xa3V;U\rm\x82@'
p5626
tp5627
Rp5628
ag3
(g7
S'\x11^\x13\xa5Uq\x82@'
p5629
tp5630
Rp5631
ag3
(g7
S'\x95\x13\xf4v\xa0b\x82@'
p5632
tp5633
Rp5634
aN(lp5635
g3
(g7
S'\xd0U=\xe1\xc1\x10:u'
p5636
tp5637
Rp5638
ag3
(g7
S'\xd3\xca"\x8c\x94\x07:u'
p5639
tp5640
Rp5641
ag3
(g7
S'\x1b^\x1d\xa3\x16\x07:u'
p5642
tp5643
Rp5644
ag3
(g7
S'\xc8<;\xa2\x16\x07:u'
p5645
tp5646
Rp5647
ag3
(g7
S'\xe9C\x18\xf3\xff\x05:u'
p5648
tp5649
Rp5650
atp5651
s.